Microsoft (R) COFF/PE Dumper Version 14.28.29910.0
Copyright (C) Microsoft Corporation.  All rights reserved.


Dump of file C:\Windows\SysWOW64\PING.EXE

File Type: EXECUTABLE IMAGE

  00401000: E0 40              loopne      00401042
  00401002: 40                 inc         eax
  00401003: 00 30              add         byte ptr [eax],dh
  00401005: 41                 inc         ecx
  00401006: 40                 inc         eax
  00401007: 00 AC 00 00 00 00  add         byte ptr [eax+eax+00000000h],ch
            00
  0040100E: 00 00              add         byte ptr [eax],al
  00401010: 00 00              add         byte ptr [eax],al
  00401012: 00 00              add         byte ptr [eax],al
  00401014: 00 00              add         byte ptr [eax],al
  00401016: 00 00              add         byte ptr [eax],al
  00401018: 00 00              add         byte ptr [eax],al
  0040101A: 00 00              add         byte ptr [eax],al
  0040101C: 00 00              add         byte ptr [eax],al
  0040101E: 00 00              add         byte ptr [eax],al
  00401020: 00 00              add         byte ptr [eax],al
  00401022: 00 00              add         byte ptr [eax],al
  00401024: 00 00              add         byte ptr [eax],al
  00401026: 00 00              add         byte ptr [eax],al
  00401028: 00 00              add         byte ptr [eax],al
  0040102A: 00 00              add         byte ptr [eax],al
  0040102C: 00 00              add         byte ptr [eax],al
  0040102E: 00 00              add         byte ptr [eax],al
  00401030: 00 00              add         byte ptr [eax],al
  00401032: 00 00              add         byte ptr [eax],al
  00401034: 00 00              add         byte ptr [eax],al
  00401036: 00 00              add         byte ptr [eax],al
  00401038: 00 00              add         byte ptr [eax],al
  0040103A: 00 00              add         byte ptr [eax],al
  0040103C: 00 00              add         byte ptr [eax],al
  0040103E: 00 00              add         byte ptr [eax],al
  00401040: 00 00              add         byte ptr [eax],al
  00401042: 00 00              add         byte ptr [eax],al
  00401044: 04 40              add         al,40h
  00401046: 40                 inc         eax
  00401047: 00 70 12           add         byte ptr [eax+12h],dh
  0040104A: 40                 inc         eax
  0040104B: 00 01              add         byte ptr [ecx],al
  0040104D: 00 00              add         byte ptr [eax],al
  0040104F: 00 5C 61 40        add         byte ptr [ecx+40h],bl
  00401053: 00 00              add         byte ptr [eax],al
  00401055: 00 00              add         byte ptr [eax],al
  00401057: 00 D0              add         al,dl
  00401059: 10 40 00           adc         byte ptr [eax],al
  0040105C: 0A 00              or          al,byte ptr [eax]
  0040105E: 00 00              add         byte ptr [eax],al
  00401060: 00 75 01           add         byte ptr [ebp+1],dh
  00401063: 00 00              add         byte ptr [eax],al
  00401065: 00 00              add         byte ptr [eax],al
  00401067: 00 00              add         byte ptr [eax],al
  00401069: 00 00              add         byte ptr [eax],al
  0040106B: 00 00              add         byte ptr [eax],al
  0040106D: 00 00              add         byte ptr [eax],al
  0040106F: 00 00              add         byte ptr [eax],al
  00401071: 00 00              add         byte ptr [eax],al
  00401073: 00 00              add         byte ptr [eax],al
  00401075: 00 00              add         byte ptr [eax],al
  00401077: 00 00              add         byte ptr [eax],al
  00401079: 00 00              add         byte ptr [eax],al
  0040107B: 00 00              add         byte ptr [eax],al
  0040107D: 00 00              add         byte ptr [eax],al
  0040107F: 00 00              add         byte ptr [eax],al
  00401081: 00 00              add         byte ptr [eax],al
  00401083: 00 00              add         byte ptr [eax],al
  00401085: 00 00              add         byte ptr [eax],al
  00401087: 00 00              add         byte ptr [eax],al
  00401089: 00 00              add         byte ptr [eax],al
  0040108B: 00 00              add         byte ptr [eax],al
  0040108D: 00 00              add         byte ptr [eax],al
  0040108F: 00 00              add         byte ptr [eax],al
  00401091: 00 00              add         byte ptr [eax],al
  00401093: 00 00              add         byte ptr [eax],al
  00401095: 00 00              add         byte ptr [eax],al
  00401097: 00 00              add         byte ptr [eax],al
  00401099: 00 00              add         byte ptr [eax],al
  0040109B: 00 00              add         byte ptr [eax],al
  0040109D: 00 00              add         byte ptr [eax],al
  0040109F: 00 00              add         byte ptr [eax],al
  004010A1: 00 00              add         byte ptr [eax],al
  004010A3: 00 00              add         byte ptr [eax],al
  004010A5: 00 00              add         byte ptr [eax],al
  004010A7: 00 00              add         byte ptr [eax],al
  004010A9: 00 00              add         byte ptr [eax],al
  004010AB: 00 00              add         byte ptr [eax],al
  004010AD: 00 00              add         byte ptr [eax],al
  004010AF: 00 00              add         byte ptr [eax],al
  004010B1: 00 00              add         byte ptr [eax],al
  004010B3: 00 00              add         byte ptr [eax],al
  004010B5: 00 00              add         byte ptr [eax],al
  004010B7: 00 00              add         byte ptr [eax],al
  004010B9: 32 40 00           xor         al,byte ptr [eax]
  004010BC: 00 00              add         byte ptr [eax],al
  004010BE: 00 00              add         byte ptr [eax],al
  004010C0: 00 00              add         byte ptr [eax],al
  004010C2: 00 00              add         byte ptr [eax],al
  004010C4: 90                 nop
  004010C5: 31 40 00           xor         dword ptr [eax],eax
  004010C8: 00 36              add         byte ptr [esi],dh
  004010CA: 40                 inc         eax
  004010CB: 00 00              add         byte ptr [eax],al
  004010CD: 00 00              add         byte ptr [eax],al
  004010CF: 00 D0              add         al,dl
  004010D1: 1C 00              sbb         al,0
  004010D3: 00 90 31 00 00 00  add         byte ptr [eax+00000031h],dl
  004010D9: 32 00              xor         al,byte ptr [eax]
  004010DB: 00 50 34           add         byte ptr [eax+34h],dl
  004010DE: 00 00              add         byte ptr [eax],al
  004010E0: 60                 pushad
  004010E1: 34 00              xor         al,0
  004010E3: 00 B0 35 00 00 00  add         byte ptr [eax+00000035h],dh
  004010E9: 36 00 00           add         byte ptr ss:[eax],al
  004010EC: D0 36              sal         byte ptr [esi],1
  004010EE: 00 00              add         byte ptr [eax],al
  004010F0: 40                 inc         eax
  004010F1: 39 00              cmp         dword ptr [eax],eax
  004010F3: 00 70 39           add         byte ptr [eax+39h],dh
  004010F6: 00 00              add         byte ptr [eax],al
  004010F8: 00 00              add         byte ptr [eax],al
  004010FA: 00 00              add         byte ptr [eax],al
  004010FC: 00 00              add         byte ptr [eax],al
  004010FE: 00 00              add         byte ptr [eax],al
  00401100: 00 00              add         byte ptr [eax],al
  00401102: 00 00              add         byte ptr [eax],al
  00401104: 00 00              add         byte ptr [eax],al
  00401106: 00 00              add         byte ptr [eax],al
  00401108: 53                 push        ebx
  00401109: 00 59 00           add         byte ptr [ecx],bl
  0040110C: 53                 push        ebx
  0040110D: 00 54 00 45        add         byte ptr [eax+eax+45h],dl
  00401111: 00 4D 00           add         byte ptr [ebp],cl
  00401114: 5C                 pop         esp
  00401115: 00 43 00           add         byte ptr [ebx],al
  00401118: 75 00              jne         0040111A
  0040111A: 72 00              jb          0040111C
  0040111C: 72 00              jb          0040111E
  0040111E: 65 00 6E 00        add         byte ptr gs:[esi],ch
  00401122: 74 00              je          00401124
  00401124: 43                 inc         ebx
  00401125: 00 6F 00           add         byte ptr [edi],ch
  00401128: 6E                 outs        dx,byte ptr [esi]
  00401129: 00 74 00 72        add         byte ptr [eax+eax+72h],dh
  0040112D: 00 6F 00           add         byte ptr [edi],ch
  00401130: 6C                 ins         byte ptr es:[edi],dx
  00401131: 00 53 00           add         byte ptr [ebx],dl
  00401134: 65 00 74 00 5C     add         byte ptr gs:[eax+eax+5Ch],dh
  00401139: 00 53 00           add         byte ptr [ebx],dl
  0040113C: 65 00 72 00        add         byte ptr gs:[edx],dh
  00401140: 76 00              jbe         00401142
  00401142: 69 00 63 00 65 00  imul        eax,dword ptr [eax],650063h
  00401148: 73 00              jae         0040114A
  0040114A: 5C                 pop         esp
  0040114B: 00 54 00 63        add         byte ptr [eax+eax+63h],dl
  0040114F: 00 70 00           add         byte ptr [eax],dh
  00401152: 69 00 70 00 5C 00  imul        eax,dword ptr [eax],5C0070h
  00401158: 50                 push        eax
  00401159: 00 61 00           add         byte ptr [ecx],ah
  0040115C: 72 00              jb          0040115E
  0040115E: 61                 popad
  0040115F: 00 6D 00           add         byte ptr [ebp],ch
  00401162: 65 00 74 00 65     add         byte ptr gs:[eax+eax+65h],dh
  00401167: 00 72 00           add         byte ptr [edx],dh
  0040116A: 73 00              jae         0040116C
  0040116C: 00 00              add         byte ptr [eax],al
  0040116E: 00 00              add         byte ptr [eax],al
  00401170: 44                 inc         esp
  00401171: 00 65 00           add         byte ptr [ebp],ah
  00401174: 66 00 61 00        add         byte ptr [ecx],ah
  00401178: 75 00              jne         0040117A
  0040117A: 6C                 ins         byte ptr es:[edi],dx
  0040117B: 00 74 00 54        add         byte ptr [eax+eax+54h],dh
  0040117F: 00 54 00 4C        add         byte ptr [eax+eax+4Ch],dl
  00401183: 00 00              add         byte ptr [eax],al
  00401185: 00 00              add         byte ptr [eax],al
  00401187: 00 49 00           add         byte ptr [ecx],cl
  0040118A: 50                 push        eax
  0040118B: 00 76 00           add         byte ptr [esi],dh
  0040118E: 34 00              xor         al,0
  00401190: 00 00              add         byte ptr [eax],al
  00401192: 00 00              add         byte ptr [eax],al
  00401194: 49                 dec         ecx
  00401195: 00 50 00           add         byte ptr [eax],dl
  00401198: 76 00              jbe         0040119A
  0040119A: 36 00 00           add         byte ptr ss:[eax],al
  0040119D: 00 00              add         byte ptr [eax],al
  0040119F: 00 4F 00           add         byte ptr [edi],cl
  004011A2: 75 00              jne         004011A4
  004011A4: 74 00              je          004011A6
  004011A6: 70 00              jo          004011A8
  004011A8: 75 00              jne         004011AA
  004011AA: 74 00              je          004011AC
  004011AC: 45                 inc         ebp
  004011AD: 00 6E 00           add         byte ptr [esi],ch
  004011B0: 63 00              arpl        word ptr [eax],ax
  004011B2: 6F                 outs        dx,dword ptr [esi]
  004011B3: 00 64 00 69        add         byte ptr [eax+eax+69h],ah
  004011B7: 00 6E 00           add         byte ptr [esi],ch
  004011BA: 67 00 00           add         byte ptr [bx+si],al
  004011BD: 00 00              add         byte ptr [eax],al
  004011BF: 00 55 00           add         byte ptr [ebp],dl
  004011C2: 6E                 outs        dx,byte ptr [esi]
  004011C3: 00 69 00           add         byte ptr [ecx],ch
  004011C6: 63 00              arpl        word ptr [eax],ax
  004011C8: 6F                 outs        dx,dword ptr [esi]
  004011C9: 00 64 00 65        add         byte ptr [eax+eax+65h],ah
  004011CD: 00 00              add         byte ptr [eax],al
  004011CF: 00 41 00           add         byte ptr [ecx],al
  004011D2: 6E                 outs        dx,byte ptr [esi]
  004011D3: 00 73 00           add         byte ptr [ebx],dh
  004011D6: 69 00 00 00 00 00  imul        eax,dword ptr [eax],0
  004011DC: 55                 push        ebp
  004011DD: 00 54 00 46        add         byte ptr [eax+eax+46h],dl
  004011E1: 00 38              add         byte ptr [eax],bh
  004011E3: 00 00              add         byte ptr [eax],al
  004011E5: 00 00              add         byte ptr [eax],al
  004011E7: 00 55 00           add         byte ptr [ebp],dl
  004011EA: 54                 push        esp
  004011EB: 00 46 00           add         byte ptr [esi],al
  004011EE: 2D 00 38 00 00     sub         eax,3800h
  004011F3: 00 FF              add         bh,bh
  004011F5: FE 00              inc         byte ptr [eax]
  004011F7: 00 EF              add         bh,ch
  004011F9: BB BF 00 25 00     mov         ebx,2500BFh
  004011FE: 6C                 ins         byte ptr es:[edi],dx
  004011FF: 00 73 00           add         byte ptr [ebx],dh
  00401202: 00 00              add         byte ptr [eax],al
  00401204: 00 00              add         byte ptr [eax],al
  00401206: 00 00              add         byte ptr [eax],al
  00401208: 00 00              add         byte ptr [eax],al
  0040120A: 00 00              add         byte ptr [eax],al
  0040120C: 00 00              add         byte ptr [eax],al
  0040120E: 00 00              add         byte ptr [eax],al
  00401210: 00 00              add         byte ptr [eax],al
  00401212: 00 00              add         byte ptr [eax],al
  00401214: 89 24 5A           mov         dword ptr [edx+ebx*2],esp
  00401217: FE 00              inc         byte ptr [eax]
  00401219: 00 00              add         byte ptr [eax],al
  0040121B: 00 02              add         byte ptr [edx],al
  0040121D: 00 00              add         byte ptr [eax],al
  0040121F: 00 21              add         byte ptr [ecx],ah
  00401221: 00 00              add         byte ptr [eax],al
  00401223: 00 74 12 00        add         byte ptr [edx+edx],dh
  00401227: 00 74 06 00        add         byte ptr [esi+eax],dh
  0040122B: 00 00              add         byte ptr [eax],al
  0040122D: 00 00              add         byte ptr [eax],al
  0040122F: 00 89 24 5A FE 00  add         byte ptr [ecx+00FE5A24h],cl
  00401235: 00 00              add         byte ptr [eax],al
  00401237: 00 0D 00 00 00 D8  add         byte ptr ds:[D8000000h],cl
  0040123D: 01 00              add         dword ptr [eax],eax
  0040123F: 00 98 12 00 00 98  add         byte ptr [eax+98000012h],bl
  00401245: 06                 push        es
  00401246: 00 00              add         byte ptr [eax],al
  00401248: 00 00              add         byte ptr [eax],al
  0040124A: 00 00              add         byte ptr [eax],al
  0040124C: 89 24 5A           mov         dword ptr [edx+ebx*2],esp
  0040124F: FE 00              inc         byte ptr [eax]
  00401251: 00 00              add         byte ptr [eax],al
  00401253: 00 10              add         byte ptr [eax],dl
  00401255: 00 00              add         byte ptr [eax],al
  00401257: 00 24 00           add         byte ptr [eax+eax],ah
  0040125A: 00 00              add         byte ptr [eax],al
  0040125C: 70 14              jo          00401272
  0040125E: 00 00              add         byte ptr [eax],al
  00401260: 70 08              jo          0040126A
  00401262: 00 00              add         byte ptr [eax],al
  00401264: 00 00              add         byte ptr [eax],al
  00401266: 00 00              add         byte ptr [eax],al
  00401268: 00 00              add         byte ptr [eax],al
  0040126A: 00 00              add         byte ptr [eax],al
  0040126C: 00 00              add         byte ptr [eax],al
  0040126E: 00 00              add         byte ptr [eax],al
  00401270: 40                 inc         eax
  00401271: 39 00              cmp         dword ptr [eax],eax
  00401273: 00 52 53           add         byte ptr [edx+53h],dl
  00401276: 44                 inc         esp
  00401277: 53                 push        ebx
  00401278: 83 68 23 F1        sub         dword ptr [eax+23h],0FFFFFFF1h
  0040127C: 3A 95 93 A3 70 A6  cmp         dl,byte ptr [ebp+A670A393h]
  00401282: 84 31              test        byte ptr [ecx],dh
  00401284: 74 36              je          004012BC
  00401286: 7B 91              jnp         00401219
  00401288: 01 00              add         dword ptr [eax],eax
  0040128A: 00 00              add         byte ptr [eax],al
  0040128C: 70 69              jo          004012F7
  0040128E: 6E                 outs        dx,byte ptr [esi]
  0040128F: 67 2E 70 64        hnt jo      004012F7
  00401293: 62 00              bound       eax,qword ptr [eax]
  00401295: 00 00              add         byte ptr [eax],al
  00401297: 00 47 43           add         byte ptr [edi+43h],al
  0040129A: 54                 push        esp
  0040129B: 4C                 dec         esp
  0040129C: 00 10              add         byte ptr [eax],dl
  0040129E: 00 00              add         byte ptr [eax],al
  004012A0: B4 00              mov         ah,0
  004012A2: 00 00              add         byte ptr [eax],al
  004012A4: 2E 72 64           hnt jb      0040130B
  004012A7: 61                 popad
  004012A8: 74 61              je          0040130B
  004012AA: 24 62              and         al,62h
  004012AC: 72 63              jb          00401311
  004012AE: 00 00              add         byte ptr [eax],al
  004012B0: B4 10              mov         ah,10h
  004012B2: 00 00              add         byte ptr [eax],al
  004012B4: 04 00              add         al,0
  004012B6: 00 00              add         byte ptr [eax],al
  004012B8: 2E 43              inc         ebx
  004012BA: 52                 push        edx
  004012BB: 54                 push        esp
  004012BC: 24 58              and         al,58h
  004012BE: 43                 inc         ebx
  004012BF: 41                 inc         ecx
  004012C0: 00 00              add         byte ptr [eax],al
  004012C2: 00 00              add         byte ptr [eax],al
  004012C4: B8 10 00 00 04     mov         eax,4000010h
  004012C9: 00 00              add         byte ptr [eax],al
  004012CB: 00 2E              add         byte ptr [esi],ch
  004012CD: 43                 inc         ebx
  004012CE: 52                 push        edx
  004012CF: 54                 push        esp
  004012D0: 24 58              and         al,58h
  004012D2: 43                 inc         ebx
  004012D3: 41                 inc         ecx
  004012D4: 41                 inc         ecx
  004012D5: 00 00              add         byte ptr [eax],al
  004012D7: 00 BC 10 00 00 04  add         byte ptr [eax+edx+00040000h],bh
            00
  004012DE: 00 00              add         byte ptr [eax],al
  004012E0: 2E 43              inc         ebx
  004012E2: 52                 push        edx
  004012E3: 54                 push        esp
  004012E4: 24 58              and         al,58h
  004012E6: 43                 inc         ebx
  004012E7: 5A                 pop         edx
  004012E8: 00 00              add         byte ptr [eax],al
  004012EA: 00 00              add         byte ptr [eax],al
  004012EC: C0 10 00           rcl         byte ptr [eax],0
  004012EF: 00 04 00           add         byte ptr [eax+eax],al
  004012F2: 00 00              add         byte ptr [eax],al
  004012F4: 2E 43              inc         ebx
  004012F6: 52                 push        edx
  004012F7: 54                 push        esp
  004012F8: 24 58              and         al,58h
  004012FA: 49                 dec         ecx
  004012FB: 41                 inc         ecx
  004012FC: 00 00              add         byte ptr [eax],al
  004012FE: 00 00              add         byte ptr [eax],al
  00401300: C4 10              les         edx,fword ptr [eax]
  00401302: 00 00              add         byte ptr [eax],al
  00401304: 04 00              add         al,0
  00401306: 00 00              add         byte ptr [eax],al
  00401308: 2E 43              inc         ebx
  0040130A: 52                 push        edx
  0040130B: 54                 push        esp
  0040130C: 24 58              and         al,58h
  0040130E: 49                 dec         ecx
  0040130F: 41                 inc         ecx
  00401310: 41                 inc         ecx
  00401311: 00 00              add         byte ptr [eax],al
  00401313: 00 C8              add         al,cl
  00401315: 10 00              adc         byte ptr [eax],al
  00401317: 00 04 00           add         byte ptr [eax+eax],al
  0040131A: 00 00              add         byte ptr [eax],al
  0040131C: 2E 43              inc         ebx
  0040131E: 52                 push        edx
  0040131F: 54                 push        esp
  00401320: 24 58              and         al,58h
  00401322: 49                 dec         ecx
  00401323: 59                 pop         ecx
  00401324: 00 00              add         byte ptr [eax],al
  00401326: 00 00              add         byte ptr [eax],al
  00401328: CC                 int         3
  00401329: 10 00              adc         byte ptr [eax],al
  0040132B: 00 04 00           add         byte ptr [eax+eax],al
  0040132E: 00 00              add         byte ptr [eax],al
  00401330: 2E 43              inc         ebx
  00401332: 52                 push        edx
  00401333: 54                 push        esp
  00401334: 24 58              and         al,58h
  00401336: 49                 dec         ecx
  00401337: 5A                 pop         edx
  00401338: 00 00              add         byte ptr [eax],al
  0040133A: 00 00              add         byte ptr [eax],al
  0040133C: D0 10              rcl         byte ptr [eax],1
  0040133E: 00 00              add         byte ptr [eax],al
  00401340: 30 00              xor         byte ptr [eax],al
  00401342: 00 00              add         byte ptr [eax],al
  00401344: 2E 67 66 69 64 73  imul        sp,word ptr cs:[si+73h],0
            00 00
  0040134C: 00 11              add         byte ptr [ecx],dl
  0040134E: 00 00              add         byte ptr [eax],al
  00401350: 70 01              jo          00401353
  00401352: 00 00              add         byte ptr [eax],al
  00401354: 2E 72 64           hnt jb      004013BB
  00401357: 61                 popad
  00401358: 74 61              je          004013BB
  0040135A: 00 00              add         byte ptr [eax],al
  0040135C: 70 12              jo          00401370
  0040135E: 00 00              add         byte ptr [eax],al
  00401360: 04 00              add         al,0
  00401362: 00 00              add         byte ptr [eax],al
  00401364: 2E 72 64           hnt jb      004013CB
  00401367: 61                 popad
  00401368: 74 61              je          004013CB
  0040136A: 24 73              and         al,73h
  0040136C: 78 64              js          004013D2
  0040136E: 61                 popad
  0040136F: 74 61              je          004013D2
  00401371: 00 00              add         byte ptr [eax],al
  00401373: 00 74 12 00        add         byte ptr [edx+edx],dh
  00401377: 00 2C 02           add         byte ptr [edx+eax],ch
  0040137A: 00 00              add         byte ptr [eax],al
  0040137C: 2E 72 64           hnt jb      004013E3
  0040137F: 61                 popad
  00401380: 74 61              je          004013E3
  00401382: 24 7A              and         al,7Ah
  00401384: 7A 7A              jp          00401400
  00401386: 64 62 67 00        bound       esp,qword ptr fs:[edi]
  0040138A: 00 00              add         byte ptr [eax],al
  0040138C: A0 14 00 00 00     mov         al,byte ptr ds:[00000014h]
  00401391: 25 00 00 2E 74     and         eax,742E0000h
  00401396: 65 78 74           js          0040140D
  00401399: 24 6D              and         al,6Dh
  0040139B: 6E                 outs        dx,byte ptr [esi]
  0040139C: 00 00              add         byte ptr [eax],al
  0040139E: 00 00              add         byte ptr [eax],al
  004013A0: A0 39 00 00 5C     mov         al,byte ptr ds:[5C000039h]
  004013A5: 00 00              add         byte ptr [eax],al
  004013A7: 00 2E              add         byte ptr [esi],ch
  004013A9: 78 64              js          0040140F
  004013AB: 61                 popad
  004013AC: 74 61              je          0040140F
  004013AE: 24 78              and         al,78h
  004013B0: 00 00              add         byte ptr [eax],al
  004013B2: 00 00              add         byte ptr [eax],al
  004013B4: 00 40 00           add         byte ptr [eax],al
  004013B7: 00 C0              add         al,al
  004013B9: 00 00              add         byte ptr [eax],al
  004013BB: 00 2E              add         byte ptr [esi],ch
  004013BD: 64 61              popad
  004013BF: 74 61              je          00401422
  004013C1: 00 00              add         byte ptr [eax],al
  004013C3: 00 C0              add         al,al
  004013C5: 40                 inc         eax
  004013C6: 00 00              add         byte ptr [eax],al
  004013C8: E8 15 00 00 2E     call        2E4013E2
  004013CD: 62 73 73           bound       esi,qword ptr [ebx+73h]
  004013D0: 00 00              add         byte ptr [eax],al
  004013D2: 00 00              add         byte ptr [eax],al
  004013D4: 00 60 00           add         byte ptr [eax],ah
  004013D7: 00 5C 01 00        add         byte ptr [ecx+eax],bl
  004013DB: 00 2E              add         byte ptr [esi],ch
  004013DD: 69 64 61 74 61 24  imul        esp,dword ptr [ecx+74h],352461h
            35 00
  004013E5: 00 00              add         byte ptr [eax],al
  004013E7: 00 5C 61 00        add         byte ptr [ecx],bl
  004013EB: 00 04 00           add         byte ptr [eax+eax],al
  004013EE: 00 00              add         byte ptr [eax],al
  004013F0: 2E 30 30           xor         byte ptr cs:[eax],dh
  004013F3: 63 66 67           arpl        word ptr [esi+67h],sp
  004013F6: 00 00              add         byte ptr [eax],al
  004013F8: 60                 pushad
  004013F9: 61                 popad
  004013FA: 00 00              add         byte ptr [eax],al
  004013FC: 68 01 00 00 2E     push        2E000001h
  00401401: 69 64 61 74 61 24  imul        esp,dword ptr [ecx+74h],322461h
            32 00
  00401409: 00 00              add         byte ptr [eax],al
  0040140B: 00 C8              add         al,cl
  0040140D: 62 00              bound       eax,qword ptr [eax]
  0040140F: 00 14 00           add         byte ptr [eax+eax],dl
  00401412: 00 00              add         byte ptr [eax],al
  00401414: 2E 69 64 61 74 61  imul        esp,dword ptr cs:[ecx+74h],332461h
            24 33 00
  0040141D: 00 00              add         byte ptr [eax],al
  0040141F: 00 DC              add         ah,bl
  00401421: 62 00              bound       eax,qword ptr [eax]
  00401423: 00 5C 01 00        add         byte ptr [ecx+eax],bl
  00401427: 00 2E              add         byte ptr [esi],ch
  00401429: 69 64 61 74 61 24  imul        esp,dword ptr [ecx+74h],342461h
            34 00
  00401431: 00 00              add         byte ptr [eax],al
  00401433: 00 38              add         byte ptr [eax],bh
  00401435: 64 00 00           add         byte ptr fs:[eax],al
  00401438: B0 06              mov         al,6
  0040143A: 00 00              add         byte ptr [eax],al
  0040143C: 2E 69 64 61 74 61  imul        esp,dword ptr cs:[ecx+74h],362461h
            24 36 00
  00401445: 00 00              add         byte ptr [eax],al
  00401447: 00 00              add         byte ptr [eax],al
  00401449: 70 00              jo          0040144B
  0040144B: 00 F0              add         al,dh
  0040144D: 00 00              add         byte ptr [eax],al
  0040144F: 00 2E              add         byte ptr [esi],ch
  00401451: 72 73              jb          004014C6
  00401453: 72 63              jb          004014B8
  00401455: 24 30              and         al,30h
  00401457: 31 00              xor         dword ptr [eax],eax
  00401459: 00 00              add         byte ptr [eax],al
  0040145B: 00 F0              add         al,dh
  0040145D: 70 00              jo          0040145F
  0040145F: 00 30              add         byte ptr [eax],dh
  00401461: 07                 pop         es
  00401462: 00 00              add         byte ptr [eax],al
  00401464: 2E 72 73           hnt jb      004014DA
  00401467: 72 63              jb          004014CC
  00401469: 24 30              and         al,30h
  0040146B: 32 00              xor         al,byte ptr [eax]
  0040146D: 00 00              add         byte ptr [eax],al
  0040146F: 00 20              add         byte ptr [eax],ah
  00401471: 00 00              add         byte ptr [eax],al
  00401473: 00 83 68 23 F1 3A  add         byte ptr [ebx+3AF12368h],al
  00401479: 95                 xchg        eax,ebp
  0040147A: 93                 xchg        eax,ebx
  0040147B: A3 70 A6 84 31     mov         dword ptr ds:[3184A670h],eax
  00401480: 74 36              je          004014B8
  00401482: 7B 91              jnp         00401415
  00401484: 43                 inc         ebx
  00401485: E2 48              loop        004014CF
  00401487: 29 6A 82           sub         dword ptr [edx-7Eh],ebp
  0040148A: FF 6B 7E           jmp         fword ptr [ebx+7Eh]
  0040148D: 67 A5              movs        dword ptr es:[di],dword ptr [si]
  0040148F: E9 89 24 5A FE     jmp         FE9A391D
  00401494: 00 00              add         byte ptr [eax],al
  00401496: 00 00              add         byte ptr [eax],al
  00401498: 00 00              add         byte ptr [eax],al
  0040149A: 00 00              add         byte ptr [eax],al
  0040149C: 00 00              add         byte ptr [eax],al
  0040149E: 00 00              add         byte ptr [eax],al
  004014A0: 8B FF              mov         edi,edi
  004014A2: 55                 push        ebp
  004014A3: 8B EC              mov         ebp,esp
  004014A5: 51                 push        ecx
  004014A6: 56                 push        esi
  004014A7: 8B 75 0C           mov         esi,dword ptr [ebp+0Ch]
  004014AA: BA 01 04 00 00     mov         edx,401h
  004014AF: 2B F1              sub         esi,ecx
  004014B1: 8D 82 FD FB FF 7F  lea         eax,[edx+7FFFFBFDh]
  004014B7: 85 C0              test        eax,eax
  004014B9: 74 14              je          004014CF
  004014BB: 0F B7 04 0E        movzx       eax,word ptr [esi+ecx]
  004014BF: 66 85 C0           test        ax,ax
  004014C2: 74 0B              je          004014CF
  004014C4: 66 89 01           mov         word ptr [ecx],ax
  004014C7: 83 C1 02           add         ecx,2
  004014CA: 83 EA 01           sub         edx,1
  004014CD: 75 E2              jne         004014B1
  004014CF: 5E                 pop         esi
  004014D0: 85 D2              test        edx,edx
  004014D2: 75 03              jne         004014D7
  004014D4: 83 E9 02           sub         ecx,2
  004014D7: F7 DA              neg         edx
  004014D9: 1B D2              sbb         edx,edx
  004014DB: 81 E2 86 FF F8 7F  and         edx,7FF8FF86h
  004014E1: 33 C0              xor         eax,eax
  004014E3: 66 89 01           mov         word ptr [ecx],ax
  004014E6: 8D 82 7A 00 07 80  lea         eax,[edx+8007007Ah]
  004014EC: C9                 leave
  004014ED: C2 0C 00           ret         0Ch
  004014F0: 8B FF              mov         edi,edi
  004014F2: 55                 push        ebp
  004014F3: 8B EC              mov         ebp,esp
  004014F5: 51                 push        ecx
  004014F6: 56                 push        esi
  004014F7: 8D 45 FC           lea         eax,[ebp-4]
  004014FA: C7 45 FC FF 07 00  mov         dword ptr [ebp-4],7FFh
            00
  00401501: 50                 push        eax
  00401502: BE 28 44 40 00     mov         esi,404428h
  00401507: 56                 push        esi
  00401508: 51                 push        ecx
  00401509: FF 15 10 60 40 00  call        dword ptr ds:[00406010h]
  0040150F: 85 C0              test        eax,eax
  00401511: 8B C6              mov         eax,esi
  00401513: 74 05              je          0040151A
  00401515: B8 00 11 40 00     mov         eax,401100h
  0040151A: 5E                 pop         esi
  0040151B: C9                 leave
  0040151C: C3                 ret
  0040151D: 68 10 27 00 00     push        2710h
  00401522: 6A 01              push        1
  00401524: E8 50 24 00 00     call        00403979
  00401529: 59                 pop         ecx
  0040152A: 50                 push        eax
  0040152B: E8 0C 1C 00 00     call        0040313C
  00401530: 59                 pop         ecx
  00401531: 59                 pop         ecx
  00401532: C3                 ret
  00401533: 8B FF              mov         edi,edi
  00401535: 55                 push        ebp
  00401536: 8B EC              mov         ebp,esp
  00401538: 56                 push        esi
  00401539: 8B 72 18           mov         esi,dword ptr [edx+18h]
  0040153C: 66 83 3E 17        cmp         word ptr [esi],17h
  00401540: 75 52              jne         00401594
  00401542: 85 C9              test        ecx,ecx
  00401544: 75 4E              jne         00401594
  00401546: 33 C0              xor         eax,eax
  00401548: 66 39 46 08        cmp         word ptr [esi+8],ax
  0040154C: 75 46              jne         00401594
  0040154E: 66 39 46 0A        cmp         word ptr [esi+0Ah],ax
  00401552: 75 40              jne         00401594
  00401554: 66 39 46 0C        cmp         word ptr [esi+0Ch],ax
  00401558: 75 3A              jne         00401594
  0040155A: 66 39 46 0E        cmp         word ptr [esi+0Eh],ax
  0040155E: 75 34              jne         00401594
  00401560: 66 39 46 10        cmp         word ptr [esi+10h],ax
  00401564: 75 2E              jne         00401594
  00401566: B8 FF FF 00 00     mov         eax,0FFFFh
  0040156B: 66 39 46 12        cmp         word ptr [esi+12h],ax
  0040156F: 75 23              jne         00401594
  00401571: 8B 4D 08           mov         ecx,dword ptr [ebp+8]
  00401574: 6A 02              push        2
  00401576: 58                 pop         eax
  00401577: 66 89 01           mov         word ptr [ecx],ax
  0040157A: 8B 46 14           mov         eax,dword ptr [esi+14h]
  0040157D: 89 41 04           mov         dword ptr [ecx+4],eax
  00401580: 66 8B 46 02        mov         ax,word ptr [esi+2]
  00401584: 66 89 41 02        mov         word ptr [ecx+2],ax
  00401588: C7 05 C0 54 40 00  mov         dword ptr ds:[004054C0h],10h
            10 00 00 00
  00401592: EB 19              jmp         004015AD
  00401594: 8B 42 10           mov         eax,dword ptr [edx+10h]
  00401597: A3 C0 54 40 00     mov         dword ptr ds:[004054C0h],eax
  0040159C: FF 72 10           push        dword ptr [edx+10h]
  0040159F: FF 72 18           push        dword ptr [edx+18h]
  004015A2: FF 75 08           push        dword ptr [ebp+8]
  004015A5: E8 E9 23 00 00     call        00403993
  004015AA: 83 C4 0C           add         esp,0Ch
  004015AD: 5E                 pop         esi
  004015AE: 5D                 pop         ebp
  004015AF: C2 08 00           ret         8
  004015B2: 8B FF              mov         edi,edi
  004015B4: 55                 push        ebp
  004015B5: 8B EC              mov         ebp,esp
  004015B7: 83 EC 28           sub         esp,28h
  004015BA: 53                 push        ebx
  004015BB: 56                 push        esi
  004015BC: 57                 push        edi
  004015BD: 8B 7D 10           mov         edi,dword ptr [ebp+10h]
  004015C0: 33 C0              xor         eax,eax
  004015C2: 8B D9              mov         ebx,ecx
  004015C4: C7 45 D8 04 00 00  mov         dword ptr [ebp-28h],4
            00
  004015CB: 33 C9              xor         ecx,ecx
  004015CD: 89 5D DC           mov         dword ptr [ebp-24h],ebx
  004015D0: 8B F2              mov         esi,edx
  004015D2: 89 4D E0           mov         dword ptr [ebp-20h],ecx
  004015D5: 66 89 07           mov         word ptr [edi],ax
  004015D8: 8D 45 F8           lea         eax,[ebp-8]
  004015DB: 50                 push        eax
  004015DC: 8D 45 D8           lea         eax,[ebp-28h]
  004015DF: 89 4D E4           mov         dword ptr [ebp-1Ch],ecx
  004015E2: 50                 push        eax
  004015E3: 51                 push        ecx
  004015E4: 56                 push        esi
  004015E5: 89 4D E8           mov         dword ptr [ebp-18h],ecx
  004015E8: 89 4D EC           mov         dword ptr [ebp-14h],ecx
  004015EB: 89 4D F0           mov         dword ptr [ebp-10h],ecx
  004015EE: 89 4D F4           mov         dword ptr [ebp-0Ch],ecx
  004015F1: FF 15 28 60 40 00  call        dword ptr ds:[00406028h]
  004015F7: 85 C0              test        eax,eax
  004015F9: 75 3C              jne         00401637
  004015FB: 8B 55 F8           mov         edx,dword ptr [ebp-8]
  004015FE: 51                 push        ecx
  004015FF: FF 75 08           push        dword ptr [ebp+8]
  00401602: 8B CB              mov         ecx,ebx
  00401604: E8 2A FF FF FF     call        00401533
  00401609: 80 7D 18 00        cmp         byte ptr [ebp+18h],0
  0040160D: 74 1B              je          0040162A
  0040160F: 6A 04              push        4
  00401611: 6A 00              push        0
  00401613: 6A 00              push        0
  00401615: 68 01 04 00 00     push        401h
  0040161A: 57                 push        edi
  0040161B: FF 35 C0 54 40 00  push        dword ptr ds:[004054C0h]
  00401621: FF 75 08           push        dword ptr [ebp+8]
  00401624: FF 15 3C 60 40 00  call        dword ptr ds:[0040603Ch]
  0040162A: FF 75 F8           push        dword ptr [ebp-8]
  0040162D: FF 15 34 60 40 00  call        dword ptr ds:[00406034h]
  00401633: B0 01              mov         al,1
  00401635: EB 57              jmp         0040168E
  00401637: 8D 45 F8           lea         eax,[ebp-8]
  0040163A: C7 45 D8 02 00 00  mov         dword ptr [ebp-28h],2
            00
  00401641: 50                 push        eax
  00401642: 8D 45 D8           lea         eax,[ebp-28h]
  00401645: 50                 push        eax
  00401646: 6A 00              push        0
  00401648: 56                 push        esi
  00401649: FF 15 28 60 40 00  call        dword ptr ds:[00406028h]
  0040164F: 85 C0              test        eax,eax
  00401651: 75 39              jne         0040168C
  00401653: 8B 55 F8           mov         edx,dword ptr [ebp-8]
  00401656: 51                 push        ecx
  00401657: FF 75 08           push        dword ptr [ebp+8]
  0040165A: 8B CB              mov         ecx,ebx
  0040165C: E8 D2 FE FF FF     call        00401533
  00401661: 8B 45 F8           mov         eax,dword ptr [ebp-8]
  00401664: 8B 40 14           mov         eax,dword ptr [eax+14h]
  00401667: 85 C0              test        eax,eax
  00401669: 75 02              jne         0040166D
  0040166B: 8B C6              mov         eax,esi
  0040166D: 51                 push        ecx
  0040166E: 50                 push        eax
  0040166F: 51                 push        ecx
  00401670: 8B CF              mov         ecx,edi
  00401672: E8 29 FE FF FF     call        004014A0
  00401677: FF 75 F8           push        dword ptr [ebp-8]
  0040167A: 8B D8              mov         ebx,eax
  0040167C: C1 EB 1F           shr         ebx,1Fh
  0040167F: 80 F3 01           xor         bl,1
  00401682: FF 15 34 60 40 00  call        dword ptr ds:[00406034h]
  00401688: 8A C3              mov         al,bl
  0040168A: EB 02              jmp         0040168E
  0040168C: 32 C0              xor         al,al
  0040168E: 5F                 pop         edi
  0040168F: 5E                 pop         esi
  00401690: 5B                 pop         ebx
  00401691: C9                 leave
  00401692: C2 14 00           ret         14h
  00401695: 8B FF              mov         edi,edi
  00401697: 55                 push        ebp
  00401698: 8B EC              mov         ebp,esp
  0040169A: 51                 push        ecx
  0040169B: 56                 push        esi
  0040169C: 8B 75 08           mov         esi,dword ptr [ebp+8]
  0040169F: 8D 42 FF           lea         eax,[edx-1]
  004016A2: 57                 push        edi
  004016A3: 8B F9              mov         edi,ecx
  004016A5: 3B F0              cmp         esi,eax
  004016A7: 75 21              jne         004016CA
  004016A9: FF 34 B7           push        dword ptr [edi+esi*4]
  004016AC: 68 11 27 00 00     push        2711h
  004016B1: 6A 01              push        1
  004016B3: E8 C1 22 00 00     call        00403979
  004016B8: 59                 pop         ecx
  004016B9: 50                 push        eax
  004016BA: E8 7D 1A 00 00     call        0040313C
  004016BF: 83 C4 0C           add         esp,0Ch
  004016C2: 6A 01              push        1
  004016C4: FF 15 2C 61 40 00  call        dword ptr ds:[0040612Ch]
  004016CA: 6A 00              push        0
  004016CC: 8D 45 FC           lea         eax,[ebp-4]
  004016CF: 50                 push        eax
  004016D0: FF 74 B7 04        push        dword ptr [edi+esi*4+4]
  004016D4: FF 15 38 61 40 00  call        dword ptr ds:[00406138h]
  004016DA: 83 C4 0C           add         esp,0Ch
  004016DD: 3B 45 0C           cmp         eax,dword ptr [ebp+0Ch]
  004016E0: 72 0B              jb          004016ED
  004016E2: 3B 45 10           cmp         eax,dword ptr [ebp+10h]
  004016E5: 77 06              ja          004016ED
  004016E7: 5F                 pop         edi
  004016E8: 5E                 pop         esi
  004016E9: C9                 leave
  004016EA: C2 0C 00           ret         0Ch
  004016ED: FF 75 10           push        dword ptr [ebp+10h]
  004016F0: FF 75 0C           push        dword ptr [ebp+0Ch]
  004016F3: FF 34 B7           push        dword ptr [edi+esi*4]
  004016F6: 68 12 27 00 00     push        2712h
  004016FB: 6A 01              push        1
  004016FD: E8 77 22 00 00     call        00403979
  00401702: 59                 pop         ecx
  00401703: 50                 push        eax
  00401704: E8 33 1A 00 00     call        0040313C
  00401709: 83 C4 14           add         esp,14h
  0040170C: EB B4              jmp         004016C2
  0040170E: 8B FF              mov         edi,edi
  00401710: 55                 push        ebp
  00401711: 8B EC              mov         ebp,esp
  00401713: 81 EC 74 08 00 00  sub         esp,874h
  00401719: A1 04 40 40 00     mov         eax,dword ptr ds:[00404004h]
  0040171E: 33 C5              xor         eax,ebp
  00401720: 89 45 FC           mov         dword ptr [ebp-4],eax
  00401723: 53                 push        ebx
  00401724: 56                 push        esi
  00401725: 8B 71 18           mov         esi,dword ptr [ecx+18h]
  00401728: 32 C0              xor         al,al
  0040172A: 57                 push        edi
  0040172B: 0F B6 79 17        movzx       edi,byte ptr [ecx+17h]
  0040172F: 03 FE              add         edi,esi
  00401731: 88 95 A5 F7 FF FF  mov         byte ptr [ebp+FFFFF7A5h],dl
  00401737: 89 BD 94 F7 FF FF  mov         dword ptr [ebp+FFFFF794h],edi
  0040173D: E9 9C 04 00 00     jmp         00401BDE
  00401742: 84 C0              test        al,al
  00401744: 0F 85 A2 04 00 00  jne         00401BEC
  0040174A: 0F B6 06           movzx       eax,byte ptr [esi]
  0040174D: 3D 82 00 00 00     cmp         eax,82h
  00401752: 0F 87 68 02 00 00  ja          004019C0
  00401758: 0F 84 5D 02 00 00  je          004019BB
  0040175E: 83 E8 00           sub         eax,0
  00401761: 0F 84 75 04 00 00  je          00401BDC
  00401767: 83 E8 01           sub         eax,1
  0040176A: 0F 84 3F 02 00 00  je          004019AF
  00401770: 83 E8 06           sub         eax,6
  00401773: 0F 84 71 02 00 00  je          004019EA
  00401779: 83 E8 3D           sub         eax,3Dh
  0040177C: 0F 85 4F 02 00 00  jne         004019D1
  00401782: 8D 46 04           lea         eax,[esi+4]
  00401785: 3B C7              cmp         eax,edi
  00401787: 76 0A              jbe         00401793
  00401789: 68 46 27 00 00     push        2746h
  0040178E: E9 39 04 00 00     jmp         00401BCC
  00401793: 8A 5E 02           mov         bl,byte ptr [esi+2]
  00401796: 8A 7E 01           mov         bh,byte ptr [esi+1]
  00401799: 80 FB 05           cmp         bl,5
  0040179C: 73 1F              jae         004017BD
  0040179E: 68 46 27 00 00     push        2746h
  004017A3: 6A 01              push        1
  004017A5: E8 CF 21 00 00     call        00403979
  004017AA: 59                 pop         ecx
  004017AB: 50                 push        eax
  004017AC: E8 8B 19 00 00     call        0040313C
  004017B1: 59                 pop         ecx
  004017B2: 59                 pop         ecx
  004017B3: 0F B6 C7           movzx       eax,bh
  004017B6: 03 F0              add         esi,eax
  004017B8: E9 F3 01 00 00     jmp         004019B0
  004017BD: 8A 46 03           mov         al,byte ptr [esi+3]
  004017C0: 24 01              and         al,1
  004017C2: 88 85 A6 F7 FF FF  mov         byte ptr [ebp+FFFFF7A6h],al
  004017C8: 0F B6 C7           movzx       eax,bh
  004017CB: 89 85 98 F7 FF FF  mov         dword ptr [ebp+FFFFF798h],eax
  004017D1: 8D 48 01           lea         ecx,[eax+1]
  004017D4: 0F B6 C3           movzx       eax,bl
  004017D7: 3B C1              cmp         eax,ecx
  004017D9: 76 04              jbe         004017DF
  004017DB: 8A DF              mov         bl,bh
  004017DD: FE C3              inc         bl
  004017DF: 83 A5 9C F7 FF FF  and         dword ptr [ebp+FFFFF79Ch],0
            00
  004017E6: B7 05              mov         bh,5
  004017E8: 68 45 27 00 00     push        2745h
  004017ED: 6A 01              push        1
  004017EF: E8 85 21 00 00     call        00403979
  004017F4: 59                 pop         ecx
  004017F5: 50                 push        eax
  004017F6: E8 41 19 00 00     call        0040313C
  004017FB: 0F B6 D3           movzx       edx,bl
  004017FE: 89 95 A0 F7 FF FF  mov         dword ptr [ebp+FFFFF7A0h],edx
  00401804: 59                 pop         ecx
  00401805: 59                 pop         ecx
  00401806: 83 FA 08           cmp         edx,8
  00401809: 0F 86 83 01 00 00  jbe         00401992
  0040180F: 8A 9D A6 F7 FF FF  mov         bl,byte ptr [ebp+FFFFF7A6h]
  00401815: 33 C0              xor         eax,eax
  00401817: 8D BD B8 F7 FF FF  lea         edi,[ebp+FFFFF7B8h]
  0040181D: AB                 stos        dword ptr es:[edi]
  0040181E: AB                 stos        dword ptr es:[edi]
  0040181F: AB                 stos        dword ptr es:[edi]
  00401820: AB                 stos        dword ptr es:[edi]
  00401821: 8B BD 9C F7 FF FF  mov         edi,dword ptr [ebp+FFFFF79Ch]
  00401827: 85 FF              test        edi,edi
  00401829: 74 4A              je          00401875
  0040182B: 68 42 27 00 00     push        2742h
  00401830: 6A 01              push        1
  00401832: E8 42 21 00 00     call        00403979
  00401837: 59                 pop         ecx
  00401838: 50                 push        eax
  00401839: E8 FE 18 00 00     call        0040313C
  0040183E: 59                 pop         ecx
  0040183F: 59                 pop         ecx
  00401840: 83 FF 01           cmp         edi,1
  00401843: 75 2A              jne         0040186F
  00401845: 68 3F 27 00 00     push        273Fh
  0040184A: 57                 push        edi
  0040184B: E8 29 21 00 00     call        00403979
  00401850: 59                 pop         ecx
  00401851: 50                 push        eax
  00401852: E8 E5 18 00 00     call        0040313C
  00401857: 59                 pop         ecx
  00401858: 59                 pop         ecx
  00401859: 68 4E 27 00 00     push        274Eh
  0040185E: 57                 push        edi
  0040185F: E8 15 21 00 00     call        00403979
  00401864: 59                 pop         ecx
  00401865: 50                 push        eax
  00401866: E8 D1 18 00 00     call        0040313C
  0040186B: 59                 pop         ecx
  0040186C: 59                 pop         ecx
  0040186D: 33 FF              xor         edi,edi
  0040186F: 8B 95 A0 F7 FF FF  mov         edx,dword ptr [ebp+FFFFF7A0h]
  00401875: 47                 inc         edi
  00401876: 89 BD 9C F7 FF FF  mov         dword ptr [ebp+FFFFF79Ch],edi
  0040187C: 84 DB              test        bl,bl
  0040187E: 0F 84 B9 00 00 00  je          0040193D
  00401884: 0F B6 CF           movzx       ecx,bh
  00401887: 8D 41 08           lea         eax,[ecx+8]
  0040188A: 3B C2              cmp         eax,edx
  0040188C: 0F 87 FA 00 00 00  ja          0040198C
  00401892: 80 BD A5 F7 FF FF  cmp         byte ptr [ebp+FFFFF7A5h],0
            00
  00401899: 8B 44 31 FF        mov         eax,dword ptr [ecx+esi-1]
  0040189D: 6A 02              push        2
  0040189F: 5F                 pop         edi
  004018A0: 66 89 BD B8 F7 FF  mov         word ptr [ebp+FFFFF7B8h],di
            FF
  004018A7: 89 85 BC F7 FF FF  mov         dword ptr [ebp+FFFFF7BCh],eax
  004018AD: 74 60              je          0040190F
  004018AF: 6A 04              push        4
  004018B1: 33 C0              xor         eax,eax
  004018B3: 50                 push        eax
  004018B4: 50                 push        eax
  004018B5: 66 89 85 C8 F7 FF  mov         word ptr [ebp+FFFFF7C8h],ax
            FF
  004018BC: 8D 85 C8 F7 FF FF  lea         eax,[ebp+FFFFF7C8h]
  004018C2: 68 01 04 00 00     push        401h
  004018C7: 50                 push        eax
  004018C8: 6A 10              push        10h
  004018CA: 8D 85 B8 F7 FF FF  lea         eax,[ebp+FFFFF7B8h]
  004018D0: 50                 push        eax
  004018D1: FF 15 3C 60 40 00  call        dword ptr ds:[0040603Ch]
  004018D7: 6A 16              push        16h
  004018D9: 85 C0              test        eax,eax
  004018DB: 8D 45 D0           lea         eax,[ebp-30h]
  004018DE: 50                 push        eax
  004018DF: 8D 85 BC F7 FF FF  lea         eax,[ebp+FFFFF7BCh]
  004018E5: 50                 push        eax
  004018E6: 57                 push        edi
  004018E7: 75 34              jne         0040191D
  004018E9: FF 15 2C 60 40 00  call        dword ptr ds:[0040602Ch]
  004018EF: 50                 push        eax
  004018F0: 8D 85 C8 F7 FF FF  lea         eax,[ebp+FFFFF7C8h]
  004018F6: 50                 push        eax
  004018F7: 68 4D 27 00 00     push        274Dh
  004018FC: 6A 01              push        1
  004018FE: E8 76 20 00 00     call        00403979
  00401903: 59                 pop         ecx
  00401904: 50                 push        eax
  00401905: E8 32 18 00 00     call        0040313C
  0040190A: 83 C4 10           add         esp,10h
  0040190D: EB 2B              jmp         0040193A
  0040190F: 6A 16              push        16h
  00401911: 8D 45 D0           lea         eax,[ebp-30h]
  00401914: 50                 push        eax
  00401915: 8D 85 BC F7 FF FF  lea         eax,[ebp+FFFFF7BCh]
  0040191B: 50                 push        eax
  0040191C: 57                 push        edi
  0040191D: FF 15 2C 60 40 00  call        dword ptr ds:[0040602Ch]
  00401923: 50                 push        eax
  00401924: 68 43 27 00 00     push        2743h
  00401929: 6A 01              push        1
  0040192B: E8 49 20 00 00     call        00403979
  00401930: 59                 pop         ecx
  00401931: 50                 push        eax
  00401932: E8 05 18 00 00     call        0040313C
  00401937: 83 C4 0C           add         esp,0Ch
  0040193A: 80 C7 04           add         bh,4
  0040193D: 0F B6 C7           movzx       eax,bh
  00401940: 8B 4C 30 FF        mov         ecx,dword ptr [eax+esi-1]
  00401944: 8B D1              mov         edx,ecx
  00401946: C1 EA 08           shr         edx,8
  00401949: 8B C1              mov         eax,ecx
  0040194B: C1 E0 08           shl         eax,8
  0040194E: 33 D0              xor         edx,eax
  00401950: C1 E1 08           shl         ecx,8
  00401953: 81 E2 FF 00 FF 00  and         edx,0FF00FFh
  00401959: 33 D1              xor         edx,ecx
  0040195B: C1 C2 10           rol         edx,10h
  0040195E: 52                 push        edx
  0040195F: 68 44 27 00 00     push        2744h
  00401964: 6A 01              push        1
  00401966: E8 0E 20 00 00     call        00403979
  0040196B: 59                 pop         ecx
  0040196C: 50                 push        eax
  0040196D: E8 CA 17 00 00     call        0040313C
  00401972: 8B 95 A0 F7 FF FF  mov         edx,dword ptr [ebp+FFFFF7A0h]
  00401978: 80 C7 04           add         bh,4
  0040197B: 0F B6 C7           movzx       eax,bh
  0040197E: 83 C4 0C           add         esp,0Ch
  00401981: 83 C0 03           add         eax,3
  00401984: 3B C2              cmp         eax,edx
  00401986: 0F 82 89 FE FF FF  jb          00401815
  0040198C: 8B BD 94 F7 FF FF  mov         edi,dword ptr [ebp+FFFFF794h]
  00401992: 68 3F 27 00 00     push        273Fh
  00401997: 6A 01              push        1
  00401999: E8 DB 1F 00 00     call        00403979
  0040199E: 59                 pop         ecx
  0040199F: 50                 push        eax
  004019A0: E8 97 17 00 00     call        0040313C
  004019A5: 03 B5 98 F7 FF FF  add         esi,dword ptr [ebp+FFFFF798h]
  004019AB: 59                 pop         ecx
  004019AC: 59                 pop         ecx
  004019AD: EB 01              jmp         004019B0
  004019AF: 46                 inc         esi
  004019B0: 8A 85 A7 F7 FF FF  mov         al,byte ptr [ebp+FFFFF7A7h]
  004019B6: E9 29 02 00 00     jmp         00401BE4
  004019BB: 83 C6 0B           add         esi,0Bh
  004019BE: EB F0              jmp         004019B0
  004019C0: 2D 83 00 00 00     sub         eax,83h
  004019C5: 74 23              je          004019EA
  004019C7: 83 E8 05           sub         eax,5
  004019CA: 74 19              je          004019E5
  004019CC: 83 E8 01           sub         eax,1
  004019CF: 74 19              je          004019EA
  004019D1: 8D 46 02           lea         eax,[esi+2]
  004019D4: 3B C7              cmp         eax,edi
  004019D6: 0F 87 00 02 00 00  ja          00401BDC
  004019DC: 0F B6 46 01        movzx       eax,byte ptr [esi+1]
  004019E0: E9 D1 FD FF FF     jmp         004017B6
  004019E5: 83 C6 04           add         esi,4
  004019E8: EB C6              jmp         004019B0
  004019EA: 8D 46 03           lea         eax,[esi+3]
  004019ED: 3B C7              cmp         eax,edi
  004019EF: 0F 87 D2 01 00 00  ja          00401BC7
  004019F5: 8A 56 01           mov         dl,byte ptr [esi+1]
  004019F8: 0F B6 CA           movzx       ecx,dl
  004019FB: 8D 04 31           lea         eax,[ecx+esi]
  004019FE: 89 85 A0 F7 FF FF  mov         dword ptr [ebp+FFFFF7A0h],eax
  00401A04: 3B C7              cmp         eax,edi
  00401A06: 0F 87 BB 01 00 00  ja          00401BC7
  00401A0C: 80 FA 03           cmp         dl,3
  00401A0F: 0F 82 B2 01 00 00  jb          00401BC7
  00401A15: 8A 5E 02           mov         bl,byte ptr [esi+2]
  00401A18: 80 FB 04           cmp         bl,4
  00401A1B: 73 20              jae         00401A3D
  00401A1D: 68 3E 27 00 00     push        273Eh
  00401A22: 6A 01              push        1
  00401A24: E8 50 1F 00 00     call        00403979
  00401A29: 59                 pop         ecx
  00401A2A: 50                 push        eax
  00401A2B: E8 0C 17 00 00     call        0040313C
  00401A30: 8B B5 A0 F7 FF FF  mov         esi,dword ptr [ebp+FFFFF7A0h]
  00401A36: 59                 pop         ecx
  00401A37: 59                 pop         ecx
  00401A38: E9 73 FF FF FF     jmp         004019B0
  00401A3D: 41                 inc         ecx
  00401A3E: 0F B6 C3           movzx       eax,bl
  00401A41: 3B C1              cmp         eax,ecx
  00401A43: 76 04              jbe         00401A49
  00401A45: 8A DA              mov         bl,dl
  00401A47: FE C3              inc         bl
  00401A49: 83 A5 98 F7 FF FF  and         dword ptr [ebp+FFFFF798h],0
            00
  00401A50: 68 40 27 00 00     push        2740h
  00401A55: 6A 01              push        1
  00401A57: C6 85 A6 F7 FF FF  mov         byte ptr [ebp+FFFFF7A6h],4
            04
  00401A5E: E8 16 1F 00 00     call        00403979
  00401A63: 59                 pop         ecx
  00401A64: 50                 push        eax
  00401A65: E8 D2 16 00 00     call        0040313C
  00401A6A: 0F B6 C3           movzx       eax,bl
  00401A6D: 89 85 90 F7 FF FF  mov         dword ptr [ebp+FFFFF790h],eax
  00401A73: 59                 pop         ecx
  00401A74: 59                 pop         ecx
  00401A75: 83 F8 07           cmp         eax,7
  00401A78: 0F 86 3F 01 00 00  jbe         00401BBD
  00401A7E: 8B 9D 98 F7 FF FF  mov         ebx,dword ptr [ebp+FFFFF798h]
  00401A84: C7 85 9C F7 FF FF  mov         dword ptr [ebp+FFFFF79Ch],4
            04 00 00 00
  00401A8E: 33 C0              xor         eax,eax
  00401A90: 8D BD A8 F7 FF FF  lea         edi,[ebp+FFFFF7A8h]
  00401A96: AB                 stos        dword ptr es:[edi]
  00401A97: AB                 stos        dword ptr es:[edi]
  00401A98: AB                 stos        dword ptr es:[edi]
  00401A99: AB                 stos        dword ptr es:[edi]
  00401A9A: 85 DB              test        ebx,ebx
  00401A9C: 74 44              je          00401AE2
  00401A9E: 68 42 27 00 00     push        2742h
  00401AA3: 6A 01              push        1
  00401AA5: E8 CF 1E 00 00     call        00403979
  00401AAA: 59                 pop         ecx
  00401AAB: 50                 push        eax
  00401AAC: E8 8B 16 00 00     call        0040313C
  00401AB1: 59                 pop         ecx
  00401AB2: 59                 pop         ecx
  00401AB3: 83 FB 01           cmp         ebx,1
  00401AB6: 75 2A              jne         00401AE2
  00401AB8: 68 3F 27 00 00     push        273Fh
  00401ABD: 53                 push        ebx
  00401ABE: E8 B6 1E 00 00     call        00403979
  00401AC3: 59                 pop         ecx
  00401AC4: 50                 push        eax
  00401AC5: E8 72 16 00 00     call        0040313C
  00401ACA: 59                 pop         ecx
  00401ACB: 59                 pop         ecx
  00401ACC: 68 49 27 00 00     push        2749h
  00401AD1: 53                 push        ebx
  00401AD2: E8 A2 1E 00 00     call        00403979
  00401AD7: 59                 pop         ecx
  00401AD8: 50                 push        eax
  00401AD9: E8 5E 16 00 00     call        0040313C
  00401ADE: 59                 pop         ecx
  00401ADF: 59                 pop         ecx
  00401AE0: 33 DB              xor         ebx,ebx
  00401AE2: 8B 85 9C F7 FF FF  mov         eax,dword ptr [ebp+FFFFF79Ch]
  00401AE8: 43                 inc         ebx
  00401AE9: 80 BD A5 F7 FF FF  cmp         byte ptr [ebp+FFFFF7A5h],0
            00
  00401AF0: 6A 02              push        2
  00401AF2: 5F                 pop         edi
  00401AF3: 8B 44 30 FF        mov         eax,dword ptr [eax+esi-1]
  00401AF7: 66 89 BD A8 F7 FF  mov         word ptr [ebp+FFFFF7A8h],di
            FF
  00401AFE: 89 85 AC F7 FF FF  mov         dword ptr [ebp+FFFFF7ACh],eax
  00401B04: 74 60              je          00401B66
  00401B06: 6A 04              push        4
  00401B08: 33 C0              xor         eax,eax
  00401B0A: 50                 push        eax
  00401B0B: 50                 push        eax
  00401B0C: 66 89 85 C8 F7 FF  mov         word ptr [ebp+FFFFF7C8h],ax
            FF
  00401B13: 8D 85 C8 F7 FF FF  lea         eax,[ebp+FFFFF7C8h]
  00401B19: 68 01 04 00 00     push        401h
  00401B1E: 50                 push        eax
  00401B1F: 6A 10              push        10h
  00401B21: 8D 85 A8 F7 FF FF  lea         eax,[ebp+FFFFF7A8h]
  00401B27: 50                 push        eax
  00401B28: FF 15 3C 60 40 00  call        dword ptr ds:[0040603Ch]
  00401B2E: 6A 16              push        16h
  00401B30: 85 C0              test        eax,eax
  00401B32: 8D 45 D0           lea         eax,[ebp-30h]
  00401B35: 50                 push        eax
  00401B36: 8D 85 AC F7 FF FF  lea         eax,[ebp+FFFFF7ACh]
  00401B3C: 50                 push        eax
  00401B3D: 57                 push        edi
  00401B3E: 75 34              jne         00401B74
  00401B40: FF 15 2C 60 40 00  call        dword ptr ds:[0040602Ch]
  00401B46: 50                 push        eax
  00401B47: 8D 85 C8 F7 FF FF  lea         eax,[ebp+FFFFF7C8h]
  00401B4D: 50                 push        eax
  00401B4E: 68 4C 27 00 00     push        274Ch
  00401B53: 6A 01              push        1
  00401B55: E8 1F 1E 00 00     call        00403979
  00401B5A: 59                 pop         ecx
  00401B5B: 50                 push        eax
  00401B5C: E8 DB 15 00 00     call        0040313C
  00401B61: 83 C4 10           add         esp,10h
  00401B64: EB 2B              jmp         00401B91
  00401B66: 6A 16              push        16h
  00401B68: 8D 45 D0           lea         eax,[ebp-30h]
  00401B6B: 50                 push        eax
  00401B6C: 8D 85 AC F7 FF FF  lea         eax,[ebp+FFFFF7ACh]
  00401B72: 50                 push        eax
  00401B73: 57                 push        edi
  00401B74: FF 15 2C 60 40 00  call        dword ptr ds:[0040602Ch]
  00401B7A: 50                 push        eax
  00401B7B: 68 41 27 00 00     push        2741h
  00401B80: 6A 01              push        1
  00401B82: E8 F2 1D 00 00     call        00403979
  00401B87: 59                 pop         ecx
  00401B88: 50                 push        eax
  00401B89: E8 AE 15 00 00     call        0040313C
  00401B8E: 83 C4 0C           add         esp,0Ch
  00401B91: 8A 85 A6 F7 FF FF  mov         al,byte ptr [ebp+FFFFF7A6h]
  00401B97: 04 04              add         al,4
  00401B99: 88 85 A6 F7 FF FF  mov         byte ptr [ebp+FFFFF7A6h],al
  00401B9F: 0F B6 C0           movzx       eax,al
  00401BA2: 89 85 9C F7 FF FF  mov         dword ptr [ebp+FFFFF79Ch],eax
  00401BA8: 83 C0 03           add         eax,3
  00401BAB: 3B 85 90 F7 FF FF  cmp         eax,dword ptr [ebp+FFFFF790h]
  00401BB1: 0F 82 D7 FE FF FF  jb          00401A8E
  00401BB7: 8B BD 94 F7 FF FF  mov         edi,dword ptr [ebp+FFFFF794h]
  00401BBD: 68 3F 27 00 00     push        273Fh
  00401BC2: E9 5B FE FF FF     jmp         00401A22
  00401BC7: 68 3E 27 00 00     push        273Eh
  00401BCC: 6A 01              push        1
  00401BCE: E8 A6 1D 00 00     call        00403979
  00401BD3: 59                 pop         ecx
  00401BD4: 50                 push        eax
  00401BD5: E8 62 15 00 00     call        0040313C
  00401BDA: 59                 pop         ecx
  00401BDB: 59                 pop         ecx
  00401BDC: B0 01              mov         al,1
  00401BDE: 88 85 A7 F7 FF FF  mov         byte ptr [ebp+FFFFF7A7h],al
  00401BE4: 3B F7              cmp         esi,edi
  00401BE6: 0F 82 56 FB FF FF  jb          00401742
  00401BEC: 8B 4D FC           mov         ecx,dword ptr [ebp-4]
  00401BEF: 5F                 pop         edi
  00401BF0: 5E                 pop         esi
  00401BF1: 33 CD              xor         ecx,ebp
  00401BF3: 5B                 pop         ebx
  00401BF4: E8 67 18 00 00     call        00403460
  00401BF9: C9                 leave
  00401BFA: C3                 ret
  00401BFB: 8B FF              mov         edi,edi
  00401BFD: 55                 push        ebp
  00401BFE: 8B EC              mov         ebp,esp
  00401C00: 81 EC 88 00 00 00  sub         esp,88h
  00401C06: A1 04 40 40 00     mov         eax,dword ptr ds:[00404004h]
  00401C0B: 33 C5              xor         eax,ebp
  00401C0D: 89 45 FC           mov         dword ptr [ebp-4],eax
  00401C10: 83 3D 0C 44 40 00  cmp         dword ptr ds:[0040440Ch],0
            00
  00401C17: 0F 86 A7 00 00 00  jbe         00401CC4
  00401C1D: A1 B0 40 40 00     mov         eax,dword ptr ds:[004040B0h]
  00401C22: 57                 push        edi
  00401C23: 6A 02              push        2
  00401C25: 6A 00              push        0
  00401C27: 8D 48 01           lea         ecx,[eax+1]
  00401C2A: F7 D9              neg         ecx
  00401C2C: 6A 00              push        0
  00401C2E: 1B C9              sbb         ecx,ecx
  00401C30: 23 C8              and         ecx,eax
  00401C32: 8D 85 78 FF FF FF  lea         eax,[ebp+FFFFFF78h]
  00401C38: 6A 41              push        41h
  00401C3A: 50                 push        eax
  00401C3B: FF 35 C0 54 40 00  push        dword ptr ds:[004054C0h]
  00401C41: 89 0D B0 40 40 00  mov         dword ptr ds:[004040B0h],ecx
  00401C47: 68 40 54 40 00     push        405440h
  00401C4C: FF 15 3C 60 40 00  call        dword ptr ds:[0040603Ch]
  00401C52: 8B 3D 0C 44 40 00  mov         edi,dword ptr ds:[0040440Ch]
  00401C58: 33 D2              xor         edx,edx
  00401C5A: 8B CF              mov         ecx,edi
  00401C5C: 2B 0D 10 44 40 00  sub         ecx,dword ptr ds:[00404410h]
  00401C62: 6B C1 64           imul        eax,ecx,64h
  00401C65: F7 F7              div         eax,edi
  00401C67: 50                 push        eax
  00401C68: 51                 push        ecx
  00401C69: FF 35 10 44 40 00  push        dword ptr ds:[00404410h]
  00401C6F: 8D 85 78 FF FF FF  lea         eax,[ebp+FFFFFF78h]
  00401C75: 57                 push        edi
  00401C76: 50                 push        eax
  00401C77: 68 4F 27 00 00     push        274Fh
  00401C7C: 6A 01              push        1
  00401C7E: E8 F6 1C 00 00     call        00403979
  00401C83: 59                 pop         ecx
  00401C84: 50                 push        eax
  00401C85: E8 B2 14 00 00     call        0040313C
  00401C8A: 8B 0D 18 44 40 00  mov         ecx,dword ptr ds:[00404418h]
  00401C90: 83 C4 1C           add         esp,1Ch
  00401C93: 5F                 pop         edi
  00401C94: 85 C9              test        ecx,ecx
  00401C96: 74 2C              je          00401CC4
  00401C98: A1 1C 44 40 00     mov         eax,dword ptr ds:[0040441Ch]
  00401C9D: 33 D2              xor         edx,edx
  00401C9F: F7 F1              div         eax,ecx
  00401CA1: 50                 push        eax
  00401CA2: FF 35 14 44 40 00  push        dword ptr ds:[00404414h]
  00401CA8: FF 35 B0 40 40 00  push        dword ptr ds:[004040B0h]
  00401CAE: 68 53 27 00 00     push        2753h
  00401CB3: 6A 01              push        1
  00401CB5: E8 BF 1C 00 00     call        00403979
  00401CBA: 59                 pop         ecx
  00401CBB: 50                 push        eax
  00401CBC: E8 7B 14 00 00     call        0040313C
  00401CC1: 83 C4 14           add         esp,14h
  00401CC4: 8B 4D FC           mov         ecx,dword ptr [ebp-4]
  00401CC7: 33 CD              xor         ecx,ebp
  00401CC9: E8 92 17 00 00     call        00403460
  00401CCE: C9                 leave
  00401CCF: C3                 ret
  00401CD0: 8B FF              mov         edi,edi
  00401CD2: 55                 push        ebp
  00401CD3: 8B EC              mov         ebp,esp
  00401CD5: E8 21 FF FF FF     call        00401BFB
  00401CDA: 8B 45 08           mov         eax,dword ptr [ebp+8]
  00401CDD: 83 E8 00           sub         eax,0
  00401CE0: 74 1F              je          00401D01
  00401CE2: 83 E8 01           sub         eax,1
  00401CE5: 75 2F              jne         00401D16
  00401CE7: 68 50 27 00 00     push        2750h
  00401CEC: 6A 01              push        1
  00401CEE: E8 86 1C 00 00     call        00403979
  00401CF3: 59                 pop         ecx
  00401CF4: 50                 push        eax
  00401CF5: E8 42 14 00 00     call        0040313C
  00401CFA: 59                 pop         ecx
  00401CFB: 33 C0              xor         eax,eax
  00401CFD: 59                 pop         ecx
  00401CFE: 40                 inc         eax
  00401CFF: EB 17              jmp         00401D18
  00401D01: 68 51 27 00 00     push        2751h
  00401D06: 6A 01              push        1
  00401D08: E8 6C 1C 00 00     call        00403979
  00401D0D: 59                 pop         ecx
  00401D0E: 50                 push        eax
  00401D0F: E8 28 14 00 00     call        0040313C
  00401D14: 59                 pop         ecx
  00401D15: 59                 pop         ecx
  00401D16: 33 C0              xor         eax,eax
  00401D18: 5D                 pop         ebp
  00401D19: C2 04 00           ret         4
  00401D1C: 8B FF              mov         edi,edi
  00401D1E: 55                 push        ebp
  00401D1F: 8B EC              mov         ebp,esp
  00401D21: 83 EC 10           sub         esp,10h
  00401D24: 53                 push        ebx
  00401D25: 56                 push        esi
  00401D26: 8D 45 FC           lea         eax,[ebp-4]
  00401D29: C7 45 F4 04 00 00  mov         dword ptr [ebp-0Ch],4
            00
  00401D30: 50                 push        eax
  00401D31: 6A 01              push        1
  00401D33: 33 F6              xor         esi,esi
  00401D35: 56                 push        esi
  00401D36: 68 08 11 40 00     push        401108h
  00401D3B: 68 02 00 00 80     push        80000002h
  00401D40: 89 75 FC           mov         dword ptr [ebp-4],esi
  00401D43: 89 75 F8           mov         dword ptr [ebp-8],esi
  00401D46: FF 15 BC 60 40 00  call        dword ptr ds:[004060BCh]
  00401D4C: 85 C0              test        eax,eax
  00401D4E: 75 1B              jne         00401D6B
  00401D50: 8D 45 F4           lea         eax,[ebp-0Ch]
  00401D53: 50                 push        eax
  00401D54: 8D 45 F8           lea         eax,[ebp-8]
  00401D57: 50                 push        eax
  00401D58: 8D 45 F0           lea         eax,[ebp-10h]
  00401D5B: 50                 push        eax
  00401D5C: 56                 push        esi
  00401D5D: 68 70 11 40 00     push        401170h
  00401D62: FF 75 FC           push        dword ptr [ebp-4]
  00401D65: FF 15 B8 60 40 00  call        dword ptr ds:[004060B8h]
  00401D6B: 8B 5D F8           mov         ebx,dword ptr [ebp-8]
  00401D6E: 85 DB              test        ebx,ebx
  00401D70: 75 02              jne         00401D74
  00401D72: B3 80              mov         bl,80h
  00401D74: 39 75 FC           cmp         dword ptr [ebp-4],esi
  00401D77: 74 09              je          00401D82
  00401D79: FF 75 FC           push        dword ptr [ebp-4]
  00401D7C: FF 15 B4 60 40 00  call        dword ptr ds:[004060B4h]
  00401D82: 5E                 pop         esi
  00401D83: 8A C3              mov         al,bl
  00401D85: 5B                 pop         ebx
  00401D86: C9                 leave
  00401D87: C3                 ret
  00401D88: 8B FF              mov         edi,edi
  00401D8A: 55                 push        ebp
  00401D8B: 8B EC              mov         ebp,esp
  00401D8D: 83 EC 28           sub         esp,28h
  00401D90: 56                 push        esi
  00401D91: 33 F6              xor         esi,esi
  00401D93: C7 45 D8 01 00 00  mov         dword ptr [ebp-28h],1
            00
  00401D9A: 8D 45 F8           lea         eax,[ebp-8]
  00401D9D: 89 75 E0           mov         dword ptr [ebp-20h],esi
  00401DA0: 50                 push        eax
  00401DA1: 8D 45 D8           lea         eax,[ebp-28h]
  00401DA4: 89 75 E4           mov         dword ptr [ebp-1Ch],esi
  00401DA7: 50                 push        eax
  00401DA8: 56                 push        esi
  00401DA9: 52                 push        edx
  00401DAA: 89 75 E8           mov         dword ptr [ebp-18h],esi
  00401DAD: 89 75 EC           mov         dword ptr [ebp-14h],esi
  00401DB0: 89 75 F0           mov         dword ptr [ebp-10h],esi
  00401DB3: 89 75 F4           mov         dword ptr [ebp-0Ch],esi
  00401DB6: 89 4D DC           mov         dword ptr [ebp-24h],ecx
  00401DB9: FF 15 28 60 40 00  call        dword ptr ds:[00406028h]
  00401DBF: 85 C0              test        eax,eax
  00401DC1: 74 04              je          00401DC7
  00401DC3: 33 C0              xor         eax,eax
  00401DC5: EB 17              jmp         00401DDE
  00401DC7: 8B 4D F8           mov         ecx,dword ptr [ebp-8]
  00401DCA: FF 71 10           push        dword ptr [ecx+10h]
  00401DCD: FF 71 18           push        dword ptr [ecx+18h]
  00401DD0: FF 75 08           push        dword ptr [ebp+8]
  00401DD3: E8 BB 1B 00 00     call        00403993
  00401DD8: 33 C0              xor         eax,eax
  00401DDA: 83 C4 0C           add         esp,0Ch
  00401DDD: 40                 inc         eax
  00401DDE: 5E                 pop         esi
  00401DDF: C9                 leave
  00401DE0: C2 04 00           ret         4
  00401DE3: 8B FF              mov         edi,edi
  00401DE5: 55                 push        ebp
  00401DE6: 8B EC              mov         ebp,esp
  00401DE8: 83 39 00           cmp         dword ptr [ecx],0
  00401DEB: 74 31              je          00401E1E
  00401DED: 39 11              cmp         dword ptr [ecx],edx
  00401DEF: 74 2D              je          00401E1E
  00401DF1: B8 88 11 40 00     mov         eax,401188h
  00401DF6: 83 FA 02           cmp         edx,2
  00401DF9: 74 05              je          00401E00
  00401DFB: B8 94 11 40 00     mov         eax,401194h
  00401E00: 50                 push        eax
  00401E01: FF 75 08           push        dword ptr [ebp+8]
  00401E04: 68 55 27 00 00     push        2755h
  00401E09: 6A 01              push        1
  00401E0B: E8 69 1B 00 00     call        00403979
  00401E10: 59                 pop         ecx
  00401E11: 50                 push        eax
  00401E12: E8 25 13 00 00     call        0040313C
  00401E17: 83 C4 10           add         esp,10h
  00401E1A: 32 C0              xor         al,al
  00401E1C: EB 04              jmp         00401E22
  00401E1E: 89 11              mov         dword ptr [ecx],edx
  00401E20: B0 01              mov         al,1
  00401E22: 5D                 pop         ebp
  00401E23: C2 04 00           ret         4
  00401E26: 8B FF              mov         edi,edi
  00401E28: 55                 push        ebp
  00401E29: 8B EC              mov         ebp,esp
  00401E2B: 83 E4 F8           and         esp,0FFFFFFF8h
  00401E2E: 81 EC A8 09 00 00  sub         esp,9A8h
  00401E34: A1 04 40 40 00     mov         eax,dword ptr ds:[00404004h]
  00401E39: 33 C4              xor         eax,esp
  00401E3B: 89 84 24 A4 09 00  mov         dword ptr [esp+000009A4h],eax
            00
  00401E42: 8B 45 0C           mov         eax,dword ptr [ebp+0Ch]
  00401E45: 33 C9              xor         ecx,ecx
  00401E47: 56                 push        esi
  00401E48: 57                 push        edi
  00401E49: 89 44 24 08        mov         dword ptr [esp+8],eax
  00401E4D: 33 F6              xor         esi,esi
  00401E4F: 8B C1              mov         eax,ecx
  00401E51: 89 4C 24 18        mov         dword ptr [esp+18h],ecx
  00401E55: 6A 20              push        20h
  00401E57: 89 44 24 10        mov         dword ptr [esp+10h],eax
  00401E5B: 46                 inc         esi
  00401E5C: 58                 pop         eax
  00401E5D: 51                 push        ecx
  00401E5E: 89 4C 24 50        mov         dword ptr [esp+50h],ecx
  00401E62: 89 4C 24 18        mov         dword ptr [esp+18h],ecx
  00401E66: 88 4C 24 54        mov         byte ptr [esp+54h],cl
  00401E6A: C7 44 24 38 04 00  mov         dword ptr [esp+38h],4
            00 00
  00401E72: 89 4C 24 40        mov         dword ptr [esp+40h],ecx
  00401E76: 89 4C 24 20        mov         dword ptr [esp+20h],ecx
  00401E7A: 88 4C 24 33        mov         byte ptr [esp+33h],cl
  00401E7E: 88 4C 24 17        mov         byte ptr [esp+17h],cl
  00401E82: C7 44 24 5C A0 0F  mov         dword ptr [esp+5Ch],0FA0h
            00 00
  00401E8A: 89 4C 24 3C        mov         dword ptr [esp+3Ch],ecx
  00401E8E: 89 4C 24 4C        mov         dword ptr [esp+4Ch],ecx
  00401E92: 89 44 24 34        mov         dword ptr [esp+34h],eax
  00401E96: 89 4C 24 2C        mov         dword ptr [esp+2Ch],ecx
  00401E9A: 88 4C 24 27        mov         byte ptr [esp+27h],cl
  00401E9E: FF 15 84 60 40 00  call        dword ptr ds:[00406084h]
  00401EA4: 33 C0              xor         eax,eax
  00401EA6: 50                 push        eax
  00401EA7: 50                 push        eax
  00401EA8: 56                 push        esi
  00401EA9: 50                 push        eax
  00401EAA: FF 15 68 60 40 00  call        dword ptr ds:[00406068h]
  00401EB0: 56                 push        esi
  00401EB1: E8 C3 1A 00 00     call        00403979
  00401EB6: 59                 pop         ecx
  00401EB7: 8B C8              mov         ecx,eax
  00401EB9: E8 82 10 00 00     call        00402F40
  00401EBE: 68 E0 54 40 00     push        4054E0h
  00401EC3: 6A 02              push        2
  00401EC5: 58                 pop         eax
  00401EC6: 50                 push        eax
  00401EC7: FF 15 38 60 40 00  call        dword ptr ds:[00406038h]
  00401ECD: 85 C0              test        eax,eax
  00401ECF: 74 24              je          00401EF5
  00401ED1: 8B C8              mov         ecx,eax
  00401ED3: E8 18 F6 FF FF     call        004014F0
  00401ED8: 50                 push        eax
  00401ED9: 68 4A 27 00 00     push        274Ah
  00401EDE: 56                 push        esi
  00401EDF: E8 95 1A 00 00     call        00403979
  00401EE4: 59                 pop         ecx
  00401EE5: 50                 push        eax
  00401EE6: E8 51 12 00 00     call        0040313C
  00401EEB: 83 C4 0C           add         esp,0Ch
  00401EEE: 56                 push        esi
  00401EEF: FF 15 2C 61 40 00  call        dword ptr ds:[0040612Ch]
  00401EF5: 33 C0              xor         eax,eax
  00401EF7: 68 80 00 00 00     push        80h
  00401EFC: 50                 push        eax
  00401EFD: 8D 44 24 70        lea         eax,[esp+70h]
  00401F01: 50                 push        eax
  00401F02: E8 92 1A 00 00     call        00403999
  00401F07: 83 C4 0C           add         esp,0Ch
  00401F0A: 33 C0              xor         eax,eax
  00401F0C: 68 02 08 00 00     push        802h
  00401F11: 50                 push        eax
  00401F12: 8D 84 24 A8 01 00  lea         eax,[esp+000001A8h]
            00
  00401F19: 50                 push        eax
  00401F1A: E8 7A 1A 00 00     call        00403999
  00401F1F: 83 C4 0C           add         esp,0Ch
  00401F22: 33 C0              xor         eax,eax
  00401F24: 68 82 00 00 00     push        82h
  00401F29: 50                 push        eax
  00401F2A: 8D 84 24 F0 00 00  lea         eax,[esp+000000F0h]
            00
  00401F31: 50                 push        eax
  00401F32: E8 62 1A 00 00     call        00403999
  00401F37: 83 C4 0C           add         esp,0Ch
  00401F3A: E8 DD FD FF FF     call        00401D1C
  00401F3F: 6A 02              push        2
  00401F41: 88 44 24 32        mov         byte ptr [esp+32h],al
  00401F45: 8B 45 08           mov         eax,dword ptr [ebp+8]
  00401F48: 5A                 pop         edx
  00401F49: 3B C2              cmp         eax,edx
  00401F4B: 7D 0A              jge         00401F57
  00401F4D: E8 CB F5 FF FF     call        0040151D
  00401F52: E9 AC 0E 00 00     jmp         00402E03
  00401F57: 33 C9              xor         ecx,ecx
  00401F59: C7 44 24 40 2F 00  mov         dword ptr [esp+40h],2Fh
            00 00
  00401F61: 41                 inc         ecx
  00401F62: C7 44 24 44 17 00  mov         dword ptr [esp+44h],17h
            00 00
  00401F6A: 8B F1              mov         esi,ecx
  00401F6C: 6A 02              push        2
  00401F6E: 5A                 pop         edx
  00401F6F: 3B C1              cmp         eax,ecx
  00401F71: 0F 86 B7 00 00 00  jbe         0040202E
  00401F77: 8B 44 24 08        mov         eax,dword ptr [esp+8]
  00401F7B: 6A 2D              push        2Dh
  00401F7D: 5A                 pop         edx
  00401F7E: 6A 02              push        2
  00401F80: 8B 0C B0           mov         ecx,dword ptr [eax+esi*4]
  00401F83: 89 4C 24 28        mov         dword ptr [esp+28h],ecx
  00401F87: 0F B7 01           movzx       eax,word ptr [ecx]
  00401F8A: 66 3B C2           cmp         ax,dx
  00401F8D: 5A                 pop         edx
  00401F8E: 74 07              je          00401F97
  00401F90: 66 3B 44 24 40     cmp         ax,word ptr [esp+40h]
  00401F95: 75 4F              jne         00401FE6
  00401F97: 0F B7 41 02        movzx       eax,word ptr [ecx+2]
  00401F9B: 83 F8 66           cmp         eax,66h
  00401F9E: 77 18              ja          00401FB8
  00401FA0: 74 2F              je          00401FD1
  00401FA2: 83 E8 34           sub         eax,34h
  00401FA5: 74 2A              je          00401FD1
  00401FA7: 2B C2              sub         eax,edx
  00401FA9: 74 05              je          00401FB0
  00401FAB: 83 E8 1C           sub         eax,1Ch
  00401FAE: 75 36              jne         00401FE6
  00401FB0: 51                 push        ecx
  00401FB1: 6A 17              push        17h
  00401FB3: 58                 pop         eax
  00401FB4: 8B D0              mov         edx,eax
  00401FB6: EB 1A              jmp         00401FD2
  00401FB8: 83 F8 6A           cmp         eax,6Ah
  00401FBB: 72 29              jb          00401FE6
  00401FBD: 83 F8 6B           cmp         eax,6Bh
  00401FC0: 76 0F              jbe         00401FD1
  00401FC2: 83 F8 71           cmp         eax,71h
  00401FC5: 76 1F              jbe         00401FE6
  00401FC7: 83 F8 73           cmp         eax,73h
  00401FCA: 76 05              jbe         00401FD1
  00401FCC: 83 F8 76           cmp         eax,76h
  00401FCF: 75 15              jne         00401FE6
  00401FD1: 51                 push        ecx
  00401FD2: 8D 4C 24 2C        lea         ecx,[esp+2Ch]
  00401FD6: E8 08 FE FF FF     call        00401DE3
  00401FDB: 84 C0              test        al,al
  00401FDD: 0F 84 1D 0E 00 00  je          00402E00
  00401FE3: 6A 02              push        2
  00401FE5: 5A                 pop         edx
  00401FE6: 8B 45 08           mov         eax,dword ptr [ebp+8]
  00401FE9: 46                 inc         esi
  00401FEA: 3B F0              cmp         esi,eax
  00401FEC: 72 89              jb          00401F77
  00401FEE: 33 C9              xor         ecx,ecx
  00401FF0: 39 54 24 28        cmp         dword ptr [esp+28h],edx
  00401FF4: 75 37              jne         0040202D
  00401FF6: 51                 push        ecx
  00401FF7: 8D 44 24 60        lea         eax,[esp+60h]
  00401FFB: 89 4C 24 60        mov         dword ptr [esp+60h],ecx
  00401FFF: 50                 push        eax
  00402000: 51                 push        ecx
  00402001: FF 15 08 60 40 00  call        dword ptr ds:[00406008h]
  00402007: 83 F8 7A           cmp         eax,7Ah
  0040200A: 74 1C              je          00402028
  0040200C: 33 F6              xor         esi,esi
  0040200E: 68 5C 27 00 00     push        275Ch
  00402013: 46                 inc         esi
  00402014: 56                 push        esi
  00402015: E8 5F 19 00 00     call        00403979
  0040201A: 59                 pop         ecx
  0040201B: 50                 push        eax
  0040201C: E8 1B 11 00 00     call        0040313C
  00402021: 59                 pop         ecx
  00402022: 59                 pop         ecx
  00402023: E9 C6 FE FF FF     jmp         00401EEE
  00402028: 8B 45 08           mov         eax,dword ptr [ebp+8]
  0040202B: 33 C9              xor         ecx,ecx
  0040202D: 41                 inc         ecx
  0040202E: 8B F1              mov         esi,ecx
  00402030: 3B C1              cmp         eax,ecx
  00402032: 0F 86 B4 0D 00 00  jbe         00402DEC
  00402038: 8B 44 24 08        mov         eax,dword ptr [esp+8]
  0040203C: 6A 2D              push        2Dh
  0040203E: 5F                 pop         edi
  0040203F: 8B 14 B0           mov         edx,dword ptr [eax+esi*4]
  00402042: 89 54 24 24        mov         dword ptr [esp+24h],edx
  00402046: 0F B7 02           movzx       eax,word ptr [edx]
  00402049: 66 3B C7           cmp         ax,di
  0040204C: 8B 7C 24 1C        mov         edi,dword ptr [esp+1Ch]
  00402050: 74 61              je          004020B3
  00402052: 66 3B 44 24 40     cmp         ax,word ptr [esp+40h]
  00402057: 74 5A              je          004020B3
  00402059: 83 7C 24 14 00     cmp         dword ptr [esp+14h],0
  0040205E: 0F 85 B5 05 00 00  jne         00402619
  00402064: FF 74 24 50        push        dword ptr [esp+50h]
  00402068: 8D 84 24 A4 01 00  lea         eax,[esp+000001A4h]
            00
  0040206F: 51                 push        ecx
  00402070: 50                 push        eax
  00402071: 51                 push        ecx
  00402072: 8B 4C 24 38        mov         ecx,dword ptr [esp+38h]
  00402076: 68 40 54 40 00     push        405440h
  0040207B: E8 32 F5 FF FF     call        004015B2
  00402080: 84 C0              test        al,al
  00402082: 0F 84 70 05 00 00  je          004025F8
  00402088: 6A 02              push        2
  0040208A: 58                 pop         eax
  0040208B: 66 39 05 40 54 40  cmp         word ptr ds:[00405440h],ax
            00
  00402092: 75 0D              jne         004020A1
  00402094: 83 3D 44 54 40 00  cmp         dword ptr ds:[00405444h],0FFFFFFFFh
            FF
  0040209B: 0F 84 57 05 00 00  je          004025F8
  004020A1: 33 C9              xor         ecx,ecx
  004020A3: 89 74 24 4C        mov         dword ptr [esp+4Ch],esi
  004020A7: 41                 inc         ecx
  004020A8: 8B C1              mov         eax,ecx
  004020AA: 89 44 24 14        mov         dword ptr [esp+14h],eax
  004020AE: E9 B8 04 00 00     jmp         0040256B
  004020B3: 0F B7 42 02        movzx       eax,word ptr [edx+2]
  004020B7: 83 F8 6A           cmp         eax,6Ah
  004020BA: 0F 87 22 02 00 00  ja          004022E2
  004020C0: 0F 84 09 01 00 00  je          004021CF
  004020C6: 83 F8 53           cmp         eax,53h
  004020C9: 77 6D              ja          00402138
  004020CB: 74 2F              je          004020FC
  004020CD: 83 E8 34           sub         eax,34h
  004020D0: 0F 84 91 04 00 00  je          00402567
  004020D6: 48                 dec         eax
  004020D7: 83 E8 01           sub         eax,1
  004020DA: 0F 84 87 04 00 00  je          00402567
  004020E0: 83 E8 09           sub         eax,9
  004020E3: 0F 84 4B 05 00 00  je          00402634
  004020E9: 83 E8 13           sub         eax,13h
  004020EC: 0F 85 9C 05 00 00  jne         0040268E
  004020F2: 80 4C 24 13 01     or          byte ptr [esp+13h],1
  004020F7: E9 6B 04 00 00     jmp         00402567
  004020FC: 8B 45 08           mov         eax,dword ptr [ebp+8]
  004020FF: 48                 dec         eax
  00402100: 3B F0              cmp         esi,eax
  00402102: 0F 84 47 05 00 00  je          0040264F
  00402108: 8B 4C 24 28        mov         ecx,dword ptr [esp+28h]
  0040210C: 8D 44 24 68        lea         eax,[esp+68h]
  00402110: 50                 push        eax
  00402111: 8B 44 24 0C        mov         eax,dword ptr [esp+0Ch]
  00402115: 46                 inc         esi
  00402116: 8B 14 B0           mov         edx,dword ptr [eax+esi*4]
  00402119: E8 6A FC FF FF     call        00401D88
  0040211E: 85 C0              test        eax,eax
  00402120: 0F 84 1B 05 00 00  je          00402641
  00402126: 8B 44 24 14        mov         eax,dword ptr [esp+14h]
  0040212A: 8B D6              mov         edx,esi
  0040212C: 33 C9              xor         ecx,ecx
  0040212E: 89 54 24 18        mov         dword ptr [esp+18h],edx
  00402132: 41                 inc         ecx
  00402133: E9 37 04 00 00     jmp         0040256F
  00402138: 83 E8 61           sub         eax,61h
  0040213B: 0F 84 85 00 00 00  je          004021C6
  00402141: 48                 dec         eax
  00402142: 83 E8 01           sub         eax,1
  00402145: 74 38              je          0040217F
  00402147: 83 E8 03           sub         eax,3
  0040214A: 74 29              je          00402175
  0040214C: 83 E8 03           sub         eax,3
  0040214F: 0F 85 39 05 00 00  jne         0040268E
  00402155: 8B 55 08           mov         edx,dword ptr [ebp+8]
  00402158: 68 FF 00 00 00     push        0FFh
  0040215D: 51                 push        ecx
  0040215E: 8B 4C 24 10        mov         ecx,dword ptr [esp+10h]
  00402162: 56                 push        esi
  00402163: E8 2D F5 FF FF     call        00401695
  00402168: 88 44 24 2E        mov         byte ptr [esp+2Eh],al
  0040216C: 46                 inc         esi
  0040216D: 33 C9              xor         ecx,ecx
  0040216F: 41                 inc         ecx
  00402170: E9 F2 03 00 00     jmp         00402567
  00402175: 80 4C 24 13 02     or          byte ptr [esp+13h],2
  0040217A: E9 E8 03 00 00     jmp         00402567
  0040217F: 8B 45 08           mov         eax,dword ptr [ebp+8]
  00402182: 48                 dec         eax
  00402183: 3B F0              cmp         esi,eax
  00402185: 0F 84 C4 04 00 00  je          0040264F
  0040218B: 8B 55 08           mov         edx,dword ptr [ebp+8]
  0040218E: 33 C0              xor         eax,eax
  00402190: 8B 4C 24 08        mov         ecx,dword ptr [esp+8]
  00402194: 6A FF              push        0FFFFFFFFh
  00402196: 50                 push        eax
  00402197: 56                 push        esi
  00402198: E8 F8 F4 FF FF     call        00401695
  0040219D: 50                 push        eax
  0040219E: 46                 inc         esi
  0040219F: FF 15 00 60 40 00  call        dword ptr ds:[00406000h]
  004021A5: 8B C8              mov         ecx,eax
  004021A7: 85 C9              test        ecx,ecx
  004021A9: 74 C2              je          0040216D
  004021AB: FF 74 24 24        push        dword ptr [esp+24h]
  004021AF: 33 C0              xor         eax,eax
  004021B1: 83 F9 05           cmp         ecx,5
  004021B4: 0F 95 C0           setne       al
  004021B7: 48                 dec         eax
  004021B8: 83 E0 43           and         eax,43h
  004021BB: 05 1A 27 00 00     add         eax,271Ah
  004021C0: 50                 push        eax
  004021C1: E9 3B 04 00 00     jmp         00402601
  004021C6: 88 4C 24 50        mov         byte ptr [esp+50h],cl
  004021CA: E9 98 03 00 00     jmp         00402567
  004021CF: 83 7C 24 38 00     cmp         dword ptr [esp+38h],0
  004021D4: 0F 85 A3 04 00 00  jne         0040267D
  004021DA: 8B 54 24 1C        mov         edx,dword ptr [esp+1Ch]
  004021DE: 8D 7A 03           lea         edi,[edx+3]
  004021E1: 83 FF 28           cmp         edi,28h
  004021E4: 0F 8F 89 04 00 00  jg          00402673
  004021EA: 8B 45 08           mov         eax,dword ptr [ebp+8]
  004021ED: 83 44 24 0C 03     add         dword ptr [esp+0Ch],3
  004021F2: 83 C0 FE           add         eax,0FFFFFFFEh
  004021F5: C7 44 24 3C 80 56  mov         dword ptr [esp+3Ch],405680h
            40 00
  004021FD: 66 C7 82 80 56 40  mov         word ptr [edx+00405680h],383h
            00 83 03
  00402206: C6 82 82 56 40 00  mov         byte ptr [edx+00405682h],4
            04
  0040220D: E9 B2 00 00 00     jmp         004022C4
  00402212: 8B 44 24 08        mov         eax,dword ptr [esp+8]
  00402216: 6A 2D              push        2Dh
  00402218: 5A                 pop         edx
  00402219: 8B 44 B0 04        mov         eax,dword ptr [eax+esi*4+4]
  0040221D: 66 39 10           cmp         word ptr [eax],dx
  00402220: 8B 54 24 1C        mov         edx,dword ptr [esp+1Ch]
  00402224: 0F 84 A2 00 00 00  je          004022CC
  0040222A: 83 FF 24           cmp         edi,24h
  0040222D: 0F 8F 40 04 00 00  jg          00402673
  00402233: 8B 44 24 08        mov         eax,dword ptr [esp+8]
  00402237: 46                 inc         esi
  00402238: 8B 14 B0           mov         edx,dword ptr [eax+esi*4]
  0040223B: 89 54 24 24        mov         dword ptr [esp+24h],edx
  0040223F: 8D 44 24 54        lea         eax,[esp+54h]
  00402243: 50                 push        eax
  00402244: 8D 44 24 28        lea         eax,[esp+28h]
  00402248: 50                 push        eax
  00402249: 51                 push        ecx
  0040224A: 52                 push        edx
  0040224B: FF 15 54 61 40 00  call        dword ptr ds:[00406154h]
  00402251: 85 C0              test        eax,eax
  00402253: 0F 88 FE 03 00 00  js          00402657
  00402259: 8B 54 24 1C        mov         edx,dword ptr [esp+1Ch]
  0040225D: 8B 44 24 54        mov         eax,dword ptr [esp+54h]
  00402261: 83 44 24 0C 04     add         dword ptr [esp+0Ch],4
  00402266: 0F B6 8A 81 56 40  movzx       ecx,byte ptr [edx+00405681h]
            00
  0040226D: 89 84 11 80 56 40  mov         dword ptr [ecx+edx+00405680h],eax
            00
  00402274: 8B 44 24 24        mov         eax,dword ptr [esp+24h]
  00402278: 80 82 81 56 40 00  add         byte ptr [edx+00405681h],4
            04
  0040227F: 0F B7 08           movzx       ecx,word ptr [eax]
  00402282: 66 85 C9           test        cx,cx
  00402285: 74 34              je          004022BB
  00402287: 6A 08              push        8
  00402289: 51                 push        ecx
  0040228A: FF 15 3C 61 40 00  call        dword ptr ds:[0040613Ch]
  00402290: 8B 54 24 2C        mov         edx,dword ptr [esp+2Ch]
  00402294: 59                 pop         ecx
  00402295: 59                 pop         ecx
  00402296: 85 C0              test        eax,eax
  00402298: 74 13              je          004022AD
  0040229A: 6A 02              push        2
  0040229C: 58                 pop         eax
  0040229D: 03 D0              add         edx,eax
  0040229F: 89 54 24 24        mov         dword ptr [esp+24h],edx
  004022A3: 0F B7 02           movzx       eax,word ptr [edx]
  004022A6: 8B C8              mov         ecx,eax
  004022A8: 66 85 C0           test        ax,ax
  004022AB: 75 DA              jne         00402287
  004022AD: 33 C0              xor         eax,eax
  004022AF: 6A 01              push        1
  004022B1: 59                 pop         ecx
  004022B2: 66 39 02           cmp         word ptr [edx],ax
  004022B5: 75 88              jne         0040223F
  004022B7: 8B 54 24 1C        mov         edx,dword ptr [esp+1Ch]
  004022BB: 8B 45 08           mov         eax,dword ptr [ebp+8]
  004022BE: 6A 01              push        1
  004022C0: 83 C0 FE           add         eax,0FFFFFFFEh
  004022C3: 59                 pop         ecx
  004022C4: 3B F0              cmp         esi,eax
  004022C6: 0F 82 46 FF FF FF  jb          00402212
  004022CC: 0F B6 82 81 56 40  movzx       eax,byte ptr [edx+00405681h]
            00
  004022D3: 03 D0              add         edx,eax
  004022D5: 89 4C 24 38        mov         dword ptr [esp+38h],ecx
  004022D9: 89 54 24 1C        mov         dword ptr [esp+1Ch],edx
  004022DD: E9 85 02 00 00     jmp         00402567
  004022E2: 83 F8 72           cmp         eax,72h
  004022E5: 0F 87 BE 01 00 00  ja          004024A9
  004022EB: 0F 84 5C 01 00 00  je          0040244D
  004022F1: 83 E8 6B           sub         eax,6Bh
  004022F4: 74 55              je          0040234B
  004022F6: 83 E8 01           sub         eax,1
  004022F9: 74 32              je          0040232D
  004022FB: 48                 dec         eax
  004022FC: 83 E8 01           sub         eax,1
  004022FF: 74 13              je          00402314
  00402301: 48                 dec         eax
  00402302: 83 E8 01           sub         eax,1
  00402305: 0F 85 83 03 00 00  jne         0040268E
  0040230B: 88 4C 24 23        mov         byte ptr [esp+23h],cl
  0040230F: E9 53 02 00 00     jmp         00402567
  00402314: 8B 55 08           mov         edx,dword ptr [ebp+8]
  00402317: 6A FF              push        0FFFFFFFFh
  00402319: 51                 push        ecx
  0040231A: 8B 4C 24 10        mov         ecx,dword ptr [esp+10h]
  0040231E: 56                 push        esi
  0040231F: E8 71 F3 FF FF     call        00401695
  00402324: 89 44 24 34        mov         dword ptr [esp+34h],eax
  00402328: E9 3F FE FF FF     jmp         0040216C
  0040232D: 8B 55 08           mov         edx,dword ptr [ebp+8]
  00402330: 33 C0              xor         eax,eax
  00402332: 8B 4C 24 08        mov         ecx,dword ptr [esp+8]
  00402336: 68 DC FF 00 00     push        0FFDCh
  0040233B: 50                 push        eax
  0040233C: 56                 push        esi
  0040233D: E8 53 F3 FF FF     call        00401695
  00402342: 89 44 24 30        mov         dword ptr [esp+30h],eax
  00402346: E9 21 FE FF FF     jmp         0040216C
  0040234B: 83 7C 24 38 00     cmp         dword ptr [esp+38h],0
  00402350: 0F 85 27 03 00 00  jne         0040267D
  00402356: 8B 54 24 1C        mov         edx,dword ptr [esp+1Ch]
  0040235A: 8D 7A 03           lea         edi,[edx+3]
  0040235D: 83 FF 28           cmp         edi,28h
  00402360: 0F 8F 0D 03 00 00  jg          00402673
  00402366: 8B 45 08           mov         eax,dword ptr [ebp+8]
  00402369: 83 44 24 0C 03     add         dword ptr [esp+0Ch],3
  0040236E: 83 C0 FE           add         eax,0FFFFFFFEh
  00402371: C7 44 24 3C 80 56  mov         dword ptr [esp+3Ch],405680h
            40 00
  00402379: 66 C7 82 80 56 40  mov         word ptr [edx+00405680h],389h
            00 89 03
  00402382: C6 82 82 56 40 00  mov         byte ptr [edx+00405682h],4
            04
  00402389: E9 B2 00 00 00     jmp         00402440
  0040238E: 8B 44 24 08        mov         eax,dword ptr [esp+8]
  00402392: 6A 2D              push        2Dh
  00402394: 5A                 pop         edx
  00402395: 8B 44 B0 04        mov         eax,dword ptr [eax+esi*4+4]
  00402399: 66 39 10           cmp         word ptr [eax],dx
  0040239C: 8B 54 24 1C        mov         edx,dword ptr [esp+1Ch]
  004023A0: 0F 84 26 FF FF FF  je          004022CC
  004023A6: 83 FF 24           cmp         edi,24h
  004023A9: 0F 8F C4 02 00 00  jg          00402673
  004023AF: 8B 44 24 08        mov         eax,dword ptr [esp+8]
  004023B3: 46                 inc         esi
  004023B4: 8B 14 B0           mov         edx,dword ptr [eax+esi*4]
  004023B7: 89 54 24 24        mov         dword ptr [esp+24h],edx
  004023BB: 8D 44 24 54        lea         eax,[esp+54h]
  004023BF: 50                 push        eax
  004023C0: 8D 44 24 28        lea         eax,[esp+28h]
  004023C4: 50                 push        eax
  004023C5: 51                 push        ecx
  004023C6: 52                 push        edx
  004023C7: FF 15 54 61 40 00  call        dword ptr ds:[00406154h]
  004023CD: 85 C0              test        eax,eax
  004023CF: 0F 88 82 02 00 00  js          00402657
  004023D5: 8B 54 24 1C        mov         edx,dword ptr [esp+1Ch]
  004023D9: 8B 44 24 54        mov         eax,dword ptr [esp+54h]
  004023DD: 83 44 24 0C 04     add         dword ptr [esp+0Ch],4
  004023E2: 0F B6 8A 81 56 40  movzx       ecx,byte ptr [edx+00405681h]
            00
  004023E9: 89 84 11 80 56 40  mov         dword ptr [ecx+edx+00405680h],eax
            00
  004023F0: 8B 44 24 24        mov         eax,dword ptr [esp+24h]
  004023F4: 80 82 81 56 40 00  add         byte ptr [edx+00405681h],4
            04
  004023FB: 0F B7 08           movzx       ecx,word ptr [eax]
  004023FE: 66 85 C9           test        cx,cx
  00402401: 74 34              je          00402437
  00402403: 6A 08              push        8
  00402405: 51                 push        ecx
  00402406: FF 15 3C 61 40 00  call        dword ptr ds:[0040613Ch]
  0040240C: 8B 54 24 2C        mov         edx,dword ptr [esp+2Ch]
  00402410: 59                 pop         ecx
  00402411: 59                 pop         ecx
  00402412: 85 C0              test        eax,eax
  00402414: 74 13              je          00402429
  00402416: 6A 02              push        2
  00402418: 58                 pop         eax
  00402419: 03 D0              add         edx,eax
  0040241B: 89 54 24 24        mov         dword ptr [esp+24h],edx
  0040241F: 0F B7 02           movzx       eax,word ptr [edx]
  00402422: 8B C8              mov         ecx,eax
  00402424: 66 85 C0           test        ax,ax
  00402427: 75 DA              jne         00402403
  00402429: 33 C0              xor         eax,eax
  0040242B: 6A 01              push        1
  0040242D: 59                 pop         ecx
  0040242E: 66 39 02           cmp         word ptr [edx],ax
  00402431: 75 88              jne         004023BB
  00402433: 8B 54 24 1C        mov         edx,dword ptr [esp+1Ch]
  00402437: 8B 45 08           mov         eax,dword ptr [ebp+8]
  0040243A: 6A 01              push        1
  0040243C: 83 C0 FE           add         eax,0FFFFFFFEh
  0040243F: 59                 pop         ecx
  00402440: 3B F0              cmp         esi,eax
  00402442: 0F 82 46 FF FF FF  jb          0040238E
  00402448: E9 7F FE FF FF     jmp         004022CC
  0040244D: 8D 47 03           lea         eax,[edi+3]
  00402450: 83 F8 28           cmp         eax,28h
  00402453: 0F 8F 1A 02 00 00  jg          00402673
  00402459: 8B 55 08           mov         edx,dword ptr [ebp+8]
  0040245C: 8B C6              mov         eax,esi
  0040245E: 6A 09              push        9
  00402460: 51                 push        ecx
  00402461: 8B 4C 24 10        mov         ecx,dword ptr [esp+10h]
  00402465: 46                 inc         esi
  00402466: 50                 push        eax
  00402467: C7 44 24 48 80 56  mov         dword ptr [esp+48h],405680h
            40 00
  0040246F: C6 87 80 56 40 00  mov         byte ptr [edi+00405680h],7
            07
  00402476: C6 87 82 56 40 00  mov         byte ptr [edi+00405682h],4
            04
  0040247D: E8 13 F2 FF FF     call        00401695
  00402482: C0 E0 02           shl         al,2
  00402485: 04 03              add         al,3
  00402487: 0F B6 C8           movzx       ecx,al
  0040248A: 8D 14 39           lea         edx,[ecx+edi]
  0040248D: 83 FA 28           cmp         edx,28h
  00402490: 0F 8F F1 01 00 00  jg          00402687
  00402496: 01 4C 24 0C        add         dword ptr [esp+0Ch],ecx
  0040249A: 88 87 81 56 40 00  mov         byte ptr [edi+00405681h],al
  004024A0: 89 54 24 1C        mov         dword ptr [esp+1Ch],edx
  004024A4: E9 C4 FC FF FF     jmp         0040216D
  004024A9: 83 E8 73           sub         eax,73h
  004024AC: 74 52              je          00402500
  004024AE: 83 E8 01           sub         eax,1
  004024B1: 74 46              je          004024F9
  004024B3: 48                 dec         eax
  004024B4: 83 E8 01           sub         eax,1
  004024B7: 74 22              je          004024DB
  004024B9: 83 E8 01           sub         eax,1
  004024BC: 0F 85 CC 01 00 00  jne         0040268E
  004024C2: 8B 55 08           mov         edx,dword ptr [ebp+8]
  004024C5: 8B 4C 24 08        mov         ecx,dword ptr [esp+8]
  004024C9: 6A FF              push        0FFFFFFFFh
  004024CB: 50                 push        eax
  004024CC: 56                 push        esi
  004024CD: E8 C3 F1 FF FF     call        00401695
  004024D2: 89 44 24 58        mov         dword ptr [esp+58h],eax
  004024D6: E9 91 FC FF FF     jmp         0040216C
  004024DB: 8B 55 08           mov         edx,dword ptr [ebp+8]
  004024DE: 33 C0              xor         eax,eax
  004024E0: 8B 4C 24 08        mov         ecx,dword ptr [esp+8]
  004024E4: 68 FF 00 00 00     push        0FFh
  004024E9: 50                 push        eax
  004024EA: 56                 push        esi
  004024EB: E8 A5 F1 FF FF     call        00401695
  004024F0: 88 44 24 2F        mov         byte ptr [esp+2Fh],al
  004024F4: E9 73 FC FF FF     jmp         0040216C
  004024F9: 83 4C 24 34 FF     or          dword ptr [esp+34h],0FFFFFFFFh
  004024FE: EB 67              jmp         00402567
  00402500: 8D 47 04           lea         eax,[edi+4]
  00402503: 83 F8 28           cmp         eax,28h
  00402506: 0F 8F 67 01 00 00  jg          00402673
  0040250C: 8B 55 08           mov         edx,dword ptr [ebp+8]
  0040250F: 8B C6              mov         eax,esi
  00402511: 6A 04              push        4
  00402513: 51                 push        ecx
  00402514: 8B 4C 24 10        mov         ecx,dword ptr [esp+10h]
  00402518: 46                 inc         esi
  00402519: 50                 push        eax
  0040251A: C7 44 24 48 80 56  mov         dword ptr [esp+48h],405680h
            40 00
  00402522: C6 87 80 56 40 00  mov         byte ptr [edi+00405680h],44h
            44
  00402529: C6 87 82 56 40 00  mov         byte ptr [edi+00405682h],5
            05
  00402530: E8 60 F1 FF FF     call        00401695
  00402535: C0 E0 03           shl         al,3
  00402538: 04 04              add         al,4
  0040253A: 0F B6 D0           movzx       edx,al
  0040253D: 03 FA              add         edi,edx
  0040253F: 83 FF 28           cmp         edi,28h
  00402542: 0F 8F 3F 01 00 00  jg          00402687
  00402548: 8B 4C 24 1C        mov         ecx,dword ptr [esp+1Ch]
  0040254C: 88 81 81 56 40 00  mov         byte ptr [ecx+00405681h],al
  00402552: 33 C9              xor         ecx,ecx
  00402554: 8B 44 24 1C        mov         eax,dword ptr [esp+1Ch]
  00402558: 41                 inc         ecx
  00402559: 01 54 24 0C        add         dword ptr [esp+0Ch],edx
  0040255D: 89 7C 24 1C        mov         dword ptr [esp+1Ch],edi
  00402561: 88 88 83 56 40 00  mov         byte ptr [eax+00405683h],cl
  00402567: 8B 44 24 14        mov         eax,dword ptr [esp+14h]
  0040256B: 8B 54 24 18        mov         edx,dword ptr [esp+18h]
  0040256F: 46                 inc         esi
  00402570: 3B 75 08           cmp         esi,dword ptr [ebp+8]
  00402573: 0F 82 BF FA FF FF  jb          00402038
  00402579: 85 C0              test        eax,eax
  0040257B: 0F 84 6B 08 00 00  je          00402DEC
  00402581: 83 7C 24 28 00     cmp         dword ptr [esp+28h],0
  00402586: 0F 85 22 01 00 00  jne         004026AE
  0040258C: 66 83 7C 24 68 00  cmp         word ptr [esp+68h],0
  00402592: 0F 84 16 01 00 00  je          004026AE
  00402598: 66 A1 40 54 40 00  mov         ax,word ptr ds:[00405440h]
  0040259E: 66 39 44 24 68     cmp         word ptr [esp+68h],ax
  004025A3: 0F 84 05 01 00 00  je          004026AE
  004025A9: 8B 74 24 08        mov         esi,dword ptr [esp+8]
  004025AD: 8D 4C 24 68        lea         ecx,[esp+68h]
  004025B1: 51                 push        ecx
  004025B2: 0F B7 C8           movzx       ecx,ax
  004025B5: 8B 14 96           mov         edx,dword ptr [esi+edx*4]
  004025B8: E8 CB F7 FF FF     call        00401D88
  004025BD: 85 C0              test        eax,eax
  004025BF: 0F 85 E9 00 00 00  jne         004026AE
  004025C5: FF 74 24 50        push        dword ptr [esp+50h]
  004025C9: 8B 54 24 50        mov         edx,dword ptr [esp+50h]
  004025CD: 8D 84 24 A4 01 00  lea         eax,[esp+000001A4h]
            00
  004025D4: 51                 push        ecx
  004025D5: 50                 push        eax
  004025D6: 51                 push        ecx
  004025D7: 0F B7 4C 24 78     movzx       ecx,word ptr [esp+78h]
  004025DC: 8B 14 96           mov         edx,dword ptr [esi+edx*4]
  004025DF: 68 40 54 40 00     push        405440h
  004025E4: E8 C9 EF FF FF     call        004015B2
  004025E9: 84 C0              test        al,al
  004025EB: 0F 85 BD 00 00 00  jne         004026AE
  004025F1: 68 5B 27 00 00     push        275Bh
  004025F6: EB 64              jmp         0040265C
  004025F8: FF 74 24 24        push        dword ptr [esp+24h]
  004025FC: 68 1D 27 00 00     push        271Dh
  00402601: 33 F6              xor         esi,esi
  00402603: 46                 inc         esi
  00402604: 56                 push        esi
  00402605: E8 6F 13 00 00     call        00403979
  0040260A: 59                 pop         ecx
  0040260B: 50                 push        eax
  0040260C: E8 2B 0B 00 00     call        0040313C
  00402611: 83 C4 0C           add         esp,0Ch
  00402614: E9 EA 07 00 00     jmp         00402E03
  00402619: 52                 push        edx
  0040261A: 68 1C 27 00 00     push        271Ch
  0040261F: 51                 push        ecx
  00402620: E8 54 13 00 00     call        00403979
  00402625: 59                 pop         ecx
  00402626: 50                 push        eax
  00402627: E8 10 0B 00 00     call        0040313C
  0040262C: 83 C4 0C           add         esp,0Ch
  0040262F: E9 CC 07 00 00     jmp         00402E00
  00402634: E8 E4 EE FF FF     call        0040151D
  00402639: 33 C0              xor         eax,eax
  0040263B: 50                 push        eax
  0040263C: E9 AE F8 FF FF     jmp         00401EEF
  00402641: 8B 44 24 08        mov         eax,dword ptr [esp+8]
  00402645: FF 34 B0           push        dword ptr [eax+esi*4]
  00402648: 68 54 27 00 00     push        2754h
  0040264D: EB B2              jmp         00402601
  0040264F: 52                 push        edx
  00402650: 68 11 27 00 00     push        2711h
  00402655: EB C8              jmp         0040261F
  00402657: 68 14 27 00 00     push        2714h
  0040265C: 33 F6              xor         esi,esi
  0040265E: 46                 inc         esi
  0040265F: 56                 push        esi
  00402660: E8 14 13 00 00     call        00403979
  00402665: 59                 pop         ecx
  00402666: 50                 push        eax
  00402667: E8 D0 0A 00 00     call        0040313C
  0040266C: 59                 pop         ecx
  0040266D: 59                 pop         ecx
  0040266E: E9 90 07 00 00     jmp         00402E03
  00402673: 68 47 27 00 00     push        2747h
  00402678: E9 74 07 00 00     jmp         00402DF1
  0040267D: 68 3D 27 00 00     push        273Dh
  00402682: E9 6A 07 00 00     jmp         00402DF1
  00402687: 68 47 27 00 00     push        2747h
  0040268C: EB CE              jmp         0040265C
  0040268E: 52                 push        edx
  0040268F: 68 1B 27 00 00     push        271Bh
  00402694: 51                 push        ecx
  00402695: E8 DF 12 00 00     call        00403979
  0040269A: 59                 pop         ecx
  0040269B: 50                 push        eax
  0040269C: E8 9B 0A 00 00     call        0040313C
  004026A1: 83 C4 0C           add         esp,0Ch
  004026A4: E8 74 EE FF FF     call        0040151D
  004026A9: E9 52 07 00 00     jmp         00402E00
  004026AE: 0F B7 05 40 54 40  movzx       eax,word ptr ds:[00405440h]
            00
  004026B5: 6A 02              push        2
  004026B7: 59                 pop         ecx
  004026B8: 89 44 24 5C        mov         dword ptr [esp+5Ch],eax
  004026BC: 3B C1              cmp         eax,ecx
  004026BE: 75 1B              jne         004026DB
  004026C0: 80 7C 24 23 00     cmp         byte ptr [esp+23h],0
  004026C5: 74 0C              je          004026D3
  004026C7: 33 F6              xor         esi,esi
  004026C9: 46                 inc         esi
  004026CA: 56                 push        esi
  004026CB: FF 15 1C 60 40 00  call        dword ptr ds:[0040601Ch]
  004026D1: EB 26              jmp         004026F9
  004026D3: FF 15 0C 60 40 00  call        dword ptr ds:[0040600Ch]
  004026D9: EB 1B              jmp         004026F6
  004026DB: 80 7C 24 23 00     cmp         byte ptr [esp+23h],0
  004026E0: 74 0E              je          004026F0
  004026E2: 33 FF              xor         edi,edi
  004026E4: 57                 push        edi
  004026E5: FF 15 1C 60 40 00  call        dword ptr ds:[0040601Ch]
  004026EB: 33 F6              xor         esi,esi
  004026ED: 46                 inc         esi
  004026EE: EB 0B              jmp         004026FB
  004026F0: FF 15 20 60 40 00  call        dword ptr ds:[00406020h]
  004026F6: 33 F6              xor         esi,esi
  004026F8: 46                 inc         esi
  004026F9: 33 FF              xor         edi,edi
  004026FB: 89 44 24 28        mov         dword ptr [esp+28h],eax
  004026FF: 83 F8 FF           cmp         eax,0FFFFFFFFh
  00402702: 75 18              jne         0040271C
  00402704: FF 15 58 60 40 00  call        dword ptr ds:[00406058h]
  0040270A: 8B C8              mov         ecx,eax
  0040270C: E8 DF ED FF FF     call        004014F0
  00402711: 50                 push        eax
  00402712: 68 1F 27 00 00     push        271Fh
  00402717: E9 E8 FE FF FF     jmp         00402604
  0040271C: FF 74 24 30        push        dword ptr [esp+30h]
  00402720: 57                 push        edi
  00402721: FF 15 74 60 40 00  call        dword ptr ds:[00406074h]
  00402727: 8B F8              mov         edi,eax
  00402729: 89 7C 24 08        mov         dword ptr [esp+8],edi
  0040272D: 85 FF              test        edi,edi
  0040272F: 75 19              jne         0040274A
  00402731: 68 48 27 00 00     push        2748h
  00402736: 56                 push        esi
  00402737: E8 3D 12 00 00     call        00403979
  0040273C: 59                 pop         ecx
  0040273D: 50                 push        eax
  0040273E: E8 F9 09 00 00     call        0040313C
  00402743: 59                 pop         ecx
  00402744: 59                 pop         ecx
  00402745: E9 7C 06 00 00     jmp         00402DC6
  0040274A: 6A 20              push        20h
  0040274C: 58                 pop         eax
  0040274D: 3B 44 24 30        cmp         eax,dword ptr [esp+30h]
  00402751: 1B C0              sbb         eax,eax
  00402753: 25 43 E0 00 00     and         eax,0E043h
  00402758: 05 F8 1F 00 00     add         eax,1FF8h
  0040275D: 50                 push        eax
  0040275E: 89 44 24 50        mov         dword ptr [esp+50h],eax
  00402762: 33 C0              xor         eax,eax
  00402764: 50                 push        eax
  00402765: FF 15 74 60 40 00  call        dword ptr ds:[00406074h]
  0040276B: 89 44 24 48        mov         dword ptr [esp+48h],eax
  0040276F: 85 C0              test        eax,eax
  00402771: 74 BE              je          00402731
  00402773: 33 C0              xor         eax,eax
  00402775: 8B C8              mov         ecx,eax
  00402777: 39 44 24 30        cmp         dword ptr [esp+30h],eax
  0040277B: 76 1A              jbe         00402797
  0040277D: 8B 74 24 30        mov         esi,dword ptr [esp+30h]
  00402781: 33 D2              xor         edx,edx
  00402783: 8B C1              mov         eax,ecx
  00402785: F7 74 24 44        div         eax,dword ptr [esp+44h]
  00402789: 80 C2 61           add         dl,61h
  0040278C: 88 14 39           mov         byte ptr [ecx+edi],dl
  0040278F: 41                 inc         ecx
  00402790: 3B CE              cmp         ecx,esi
  00402792: 72 ED              jb          00402781
  00402794: 33 F6              xor         esi,esi
  00402796: 46                 inc         esi
  00402797: 8B 44 24 3C        mov         eax,dword ptr [esp+3Ch]
  0040279B: 89 44 24 64        mov         dword ptr [esp+64h],eax
  0040279F: 8B 44 24 0C        mov         eax,dword ptr [esp+0Ch]
  004027A3: 88 44 24 63        mov         byte ptr [esp+63h],al
  004027A7: 8A 44 24 2E        mov         al,byte ptr [esp+2Eh]
  004027AB: 88 44 24 60        mov         byte ptr [esp+60h],al
  004027AF: 8A 44 24 2F        mov         al,byte ptr [esp+2Fh]
  004027B3: 6A 02              push        2
  004027B5: 88 44 24 65        mov         byte ptr [esp+65h],al
  004027B9: 8A 44 24 17        mov         al,byte ptr [esp+17h]
  004027BD: 88 44 24 66        mov         byte ptr [esp+66h],al
  004027C1: 58                 pop         eax
  004027C2: 50                 push        eax
  004027C3: 33 C0              xor         eax,eax
  004027C5: 50                 push        eax
  004027C6: 50                 push        eax
  004027C7: 6A 41              push        41h
  004027C9: 8D 84 24 F8 00 00  lea         eax,[esp+000000F8h]
            00
  004027D0: 50                 push        eax
  004027D1: FF 35 C0 54 40 00  push        dword ptr ds:[004054C0h]
  004027D7: 68 40 54 40 00     push        405440h
  004027DC: FF 15 3C 60 40 00  call        dword ptr ds:[0040603Ch]
  004027E2: 85 C0              test        eax,eax
  004027E4: 74 18              je          004027FE
  004027E6: 33 C0              xor         eax,eax
  004027E8: 68 82 00 00 00     push        82h
  004027ED: 50                 push        eax
  004027EE: 8D 84 24 F0 00 00  lea         eax,[esp+000000F0h]
            00
  004027F5: 50                 push        eax
  004027F6: E8 9E 11 00 00     call        00403999
  004027FB: 83 C4 0C           add         esp,0Ch
  004027FE: 66 83 BC 24 A0 01  cmp         word ptr [esp+000001A0h],0
            00 00 00
  00402807: 8D 84 24 E8 00 00  lea         eax,[esp+000000E8h]
            00
  0040280E: 50                 push        eax
  0040280F: 74 1F              je          00402830
  00402811: 8D 84 24 A4 01 00  lea         eax,[esp+000001A4h]
            00
  00402818: 50                 push        eax
  00402819: 68 20 27 00 00     push        2720h
  0040281E: 56                 push        esi
  0040281F: E8 55 11 00 00     call        00403979
  00402824: 59                 pop         ecx
  00402825: 50                 push        eax
  00402826: E8 11 09 00 00     call        0040313C
  0040282B: 83 C4 10           add         esp,10h
  0040282E: EB 15              jmp         00402845
  00402830: 68 4B 27 00 00     push        274Bh
  00402835: 56                 push        esi
  00402836: E8 3E 11 00 00     call        00403979
  0040283B: 59                 pop         ecx
  0040283C: 50                 push        eax
  0040283D: E8 FA 08 00 00     call        0040313C
  00402842: 83 C4 0C           add         esp,0Ch
  00402845: 6A 17              push        17h
  00402847: 58                 pop         eax
  00402848: 6A 02              push        2
  0040284A: 59                 pop         ecx
  0040284B: 66 39 44 24 68     cmp         word ptr [esp+68h],ax
  00402850: 74 07              je          00402859
  00402852: 66 39 4C 24 68     cmp         word ptr [esp+68h],cx
  00402857: 75 68              jne         004028C1
  00402859: 33 C0              xor         eax,eax
  0040285B: 66 39 4C 24 68     cmp         word ptr [esp+68h],cx
  00402860: 51                 push        ecx
  00402861: 0F 95 C0           setne       al
  00402864: 33 C9              xor         ecx,ecx
  00402866: 51                 push        ecx
  00402867: 51                 push        ecx
  00402868: 48                 dec         eax
  00402869: 8D 8C 24 F4 00 00  lea         ecx,[esp+000000F4h]
            00
  00402870: 6A 41              push        41h
  00402872: 83 E0 F4           and         eax,0FFFFFFF4h
  00402875: 83 C0 1C           add         eax,1Ch
  00402878: 51                 push        ecx
  00402879: 50                 push        eax
  0040287A: 8D 84 24 80 00 00  lea         eax,[esp+00000080h]
            00
  00402881: 50                 push        eax
  00402882: FF 15 3C 60 40 00  call        dword ptr ds:[0040603Ch]
  00402888: 85 C0              test        eax,eax
  0040288A: 74 18              je          004028A4
  0040288C: 33 C0              xor         eax,eax
  0040288E: 68 82 00 00 00     push        82h
  00402893: 50                 push        eax
  00402894: 8D 84 24 F0 00 00  lea         eax,[esp+000000F0h]
            00
  0040289B: 50                 push        eax
  0040289C: E8 F8 10 00 00     call        00403999
  004028A1: 83 C4 0C           add         esp,0Ch
  004028A4: 8D 84 24 E8 00 00  lea         eax,[esp+000000E8h]
            00
  004028AB: 50                 push        eax
  004028AC: 68 59 27 00 00     push        2759h
  004028B1: 56                 push        esi
  004028B2: E8 C2 10 00 00     call        00403979
  004028B7: 59                 pop         ecx
  004028B8: 50                 push        eax
  004028B9: E8 7E 08 00 00     call        0040313C
  004028BE: 83 C4 0C           add         esp,0Ch
  004028C1: FF 74 24 30        push        dword ptr [esp+30h]
  004028C5: 68 5A 27 00 00     push        275Ah
  004028CA: 56                 push        esi
  004028CB: E8 A9 10 00 00     call        00403979
  004028D0: 59                 pop         ecx
  004028D1: 50                 push        eax
  004028D2: E8 65 08 00 00     call        0040313C
  004028D7: 83 C4 0C           add         esp,0Ch
  004028DA: 56                 push        esi
  004028DB: 68 D0 1C 40 00     push        401CD0h
  004028E0: FF 15 44 60 40 00  call        dword ptr ds:[00406044h]
  004028E6: 33 D2              xor         edx,edx
  004028E8: 89 54 24 0C        mov         dword ptr [esp+0Ch],edx
  004028EC: 39 54 24 34        cmp         dword ptr [esp+34h],edx
  004028F0: 0F 84 B8 04 00 00  je          00402DAE
  004028F6: 8B 44 24 30        mov         eax,dword ptr [esp+30h]
  004028FA: 6A 02              push        2
  004028FC: 59                 pop         ecx
  004028FD: FF 74 24 58        push        dword ptr [esp+58h]
  00402901: 39 4C 24 60        cmp         dword ptr [esp+60h],ecx
  00402905: 8D 4C 24 64        lea         ecx,[esp+64h]
  00402909: FF 74 24 50        push        dword ptr [esp+50h]
  0040290D: 0F B7 C0           movzx       eax,ax
  00402910: FF 74 24 50        push        dword ptr [esp+50h]
  00402914: 51                 push        ecx
  00402915: 50                 push        eax
  00402916: 57                 push        edi
  00402917: 0F 85 77 02 00 00  jne         00402B94
  0040291D: FF 35 44 54 40 00  push        dword ptr ds:[00405444h]
  00402923: 33 C0              xor         eax,eax
  00402925: 6A 02              push        2
  00402927: 59                 pop         ecx
  00402928: 66 39 8C 24 84 00  cmp         word ptr [esp+00000084h],cx
            00 00
  00402930: 0F 95 C0           setne       al
  00402933: 48                 dec         eax
  00402934: 23 84 24 88 00 00  and         eax,dword ptr [esp+00000088h]
            00
  0040293B: 50                 push        eax
  0040293C: 52                 push        edx
  0040293D: 52                 push        edx
  0040293E: 52                 push        edx
  0040293F: FF 74 24 54        push        dword ptr [esp+54h]
  00402943: FF 15 18 60 40 00  call        dword ptr ds:[00406018h]
  00402949: FF 05 0C 44 40 00  inc         dword ptr ds:[0040440Ch]
  0040294F: 85 C0              test        eax,eax
  00402951: 75 75              jne         004029C8
  00402953: FF 15 58 60 40 00  call        dword ptr ds:[00406058h]
  00402959: 8B C8              mov         ecx,eax
  0040295B: 81 F9 F8 2A 00 00  cmp         ecx,2AF8h
  00402961: 73 1D              jae         00402980
  00402963: E8 88 EB FF FF     call        004014F0
  00402968: 50                 push        eax
  00402969: 68 22 27 00 00     push        2722h
  0040296E: 56                 push        esi
  0040296F: E8 05 10 00 00     call        00403979
  00402974: 59                 pop         ecx
  00402975: 50                 push        eax
  00402976: E8 C1 07 00 00     call        0040313C
  0040297B: 83 C4 0C           add         esp,0Ch
  0040297E: EB 34              jmp         004029B4
  00402980: 33 C0              xor         eax,eax
  00402982: 8B D0              mov         edx,eax
  00402984: A1 10 40 40 00     mov         eax,dword ptr ds:[00404010h]
  00402989: EB 0F              jmp         0040299A
  0040298B: 3D 2A 2B 00 00     cmp         eax,2B2Ah
  00402990: 74 0C              je          0040299E
  00402992: 8B 04 D5 18 40 40  mov         eax,dword ptr [edx*8+00404018h]
            00
  00402999: 42                 inc         edx
  0040299A: 3B C1              cmp         eax,ecx
  0040299C: 75 ED              jne         0040298B
  0040299E: FF 34 D5 14 40 40  push        dword ptr [edx*8+00404014h]
            00
  004029A5: 56                 push        esi
  004029A6: E8 CE 0F 00 00     call        00403979
  004029AB: 59                 pop         ecx
  004029AC: 50                 push        eax
  004029AD: E8 8A 07 00 00     call        0040313C
  004029B2: 59                 pop         ecx
  004029B3: 59                 pop         ecx
  004029B4: 8B 44 24 34        mov         eax,dword ptr [esp+34h]
  004029B8: 48                 dec         eax
  004029B9: 39 44 24 0C        cmp         dword ptr [esp+0Ch],eax
  004029BD: 0F 83 76 02 00 00  jae         00402C39
  004029C3: E9 66 02 00 00     jmp         00402C2E
  004029C8: 8B 7C 24 48        mov         edi,dword ptr [esp+48h]
  004029CC: 48                 dec         eax
  004029CD: 89 44 24 3C        mov         dword ptr [esp+3Ch],eax
  004029D1: 8B 07              mov         eax,dword ptr [edi]
  004029D3: 6A 16              push        16h
  004029D5: 89 44 24 48        mov         dword ptr [esp+48h],eax
  004029D9: 8D 84 24 78 01 00  lea         eax,[esp+00000178h]
            00
  004029E0: 50                 push        eax
  004029E1: 8D 44 24 4C        lea         eax,[esp+4Ch]
  004029E5: 50                 push        eax
  004029E6: 6A 02              push        2
  004029E8: 58                 pop         eax
  004029E9: 50                 push        eax
  004029EA: FF 15 2C 60 40 00  call        dword ptr ds:[0040602Ch]
  004029F0: 50                 push        eax
  004029F1: 68 23 27 00 00     push        2723h
  004029F6: 56                 push        esi
  004029F7: E8 7D 0F 00 00     call        00403979
  004029FC: 59                 pop         ecx
  004029FD: 50                 push        eax
  004029FE: E8 39 07 00 00     call        0040313C
  00402A03: 83 C4 0C           add         esp,0Ch
  00402A06: 83 7F 04 00        cmp         dword ptr [edi+4],0
  00402A0A: 0F 85 0D 01 00 00  jne         00402B1D
  00402A10: 0F B7 47 0C        movzx       eax,word ptr [edi+0Ch]
  00402A14: FF 05 18 44 40 00  inc         dword ptr ds:[00404418h]
  00402A1A: 50                 push        eax
  00402A1B: 68 3C 27 00 00     push        273Ch
  00402A20: 56                 push        esi
  00402A21: E8 53 0F 00 00     call        00403979
  00402A26: 59                 pop         ecx
  00402A27: 50                 push        eax
  00402A28: E8 0F 07 00 00     call        0040313C
  00402A2D: 0F B7 47 0C        movzx       eax,word ptr [edi+0Ch]
  00402A31: 83 C4 0C           add         esp,0Ch
  00402A34: 8B 4C 24 30        mov         ecx,dword ptr [esp+30h]
  00402A38: 3B C1              cmp         eax,ecx
  00402A3A: 74 08              je          00402A44
  00402A3C: 51                 push        ecx
  00402A3D: 68 24 27 00 00     push        2724h
  00402A42: EB 3E              jmp         00402A82
  00402A44: 8B 44 24 08        mov         eax,dword ptr [esp+8]
  00402A48: 33 D2              xor         edx,edx
  00402A4A: 89 44 24 38        mov         dword ptr [esp+38h],eax
  00402A4E: 85 C9              test        ecx,ecx
  00402A50: 74 40              je          00402A92
  00402A52: 8B 4F 10           mov         ecx,dword ptr [edi+10h]
  00402A55: 2B C8              sub         ecx,eax
  00402A57: 89 4C 24 40        mov         dword ptr [esp+40h],ecx
  00402A5B: 8B 74 24 40        mov         esi,dword ptr [esp+40h]
  00402A5F: 8A 08              mov         cl,byte ptr [eax]
  00402A61: FF 44 24 38        inc         dword ptr [esp+38h]
  00402A65: 6A 01              push        1
  00402A67: 8A 04 30           mov         al,byte ptr [eax+esi]
  00402A6A: 5E                 pop         esi
  00402A6B: 3A C8              cmp         cl,al
  00402A6D: 75 0D              jne         00402A7C
  00402A6F: 8B 44 24 38        mov         eax,dword ptr [esp+38h]
  00402A73: 42                 inc         edx
  00402A74: 3B 54 24 30        cmp         edx,dword ptr [esp+30h]
  00402A78: 72 E1              jb          00402A5B
  00402A7A: EB 16              jmp         00402A92
  00402A7C: 52                 push        edx
  00402A7D: 68 25 27 00 00     push        2725h
  00402A82: 56                 push        esi
  00402A83: E8 F1 0E 00 00     call        00403979
  00402A88: 59                 pop         ecx
  00402A89: 50                 push        eax
  00402A8A: E8 AD 06 00 00     call        0040313C
  00402A8F: 83 C4 0C           add         esp,0Ch
  00402A92: 83 7F 08 00        cmp         dword ptr [edi+8],0
  00402A96: 74 3D              je          00402AD5
  00402A98: FF 77 08           push        dword ptr [edi+8]
  00402A9B: 68 26 27 00 00     push        2726h
  00402AA0: 56                 push        esi
  00402AA1: E8 D3 0E 00 00     call        00403979
  00402AA6: 59                 pop         ecx
  00402AA7: 50                 push        eax
  00402AA8: E8 8F 06 00 00     call        0040313C
  00402AAD: 8B 47 08           mov         eax,dword ptr [edi+8]
  00402AB0: 83 C4 0C           add         esp,0Ch
  00402AB3: 01 05 1C 44 40 00  add         dword ptr ds:[0040441Ch],eax
  00402AB9: 3B 05 B0 40 40 00  cmp         eax,dword ptr ds:[004040B0h]
  00402ABF: 73 05              jae         00402AC6
  00402AC1: A3 B0 40 40 00     mov         dword ptr ds:[004040B0h],eax
  00402AC6: 3B 05 14 44 40 00  cmp         eax,dword ptr ds:[00404414h]
  00402ACC: 76 22              jbe         00402AF0
  00402ACE: A3 14 44 40 00     mov         dword ptr ds:[00404414h],eax
  00402AD3: EB 1B              jmp         00402AF0
  00402AD5: 68 27 27 00 00     push        2727h
  00402ADA: 56                 push        esi
  00402ADB: E8 99 0E 00 00     call        00403979
  00402AE0: 59                 pop         ecx
  00402AE1: 50                 push        eax
  00402AE2: E8 55 06 00 00     call        0040313C
  00402AE7: 59                 pop         ecx
  00402AE8: 33 C0              xor         eax,eax
  00402AEA: 59                 pop         ecx
  00402AEB: A3 B0 40 40 00     mov         dword ptr ds:[004040B0h],eax
  00402AF0: 0F B6 47 14        movzx       eax,byte ptr [edi+14h]
  00402AF4: 50                 push        eax
  00402AF5: 68 28 27 00 00     push        2728h
  00402AFA: 56                 push        esi
  00402AFB: E8 79 0E 00 00     call        00403979
  00402B00: 59                 pop         ecx
  00402B01: 50                 push        eax
  00402B02: E8 35 06 00 00     call        0040313C
  00402B07: 83 C4 0C           add         esp,0Ch
  00402B0A: 80 7F 17 00        cmp         byte ptr [edi+17h],0
  00402B0E: 74 44              je          00402B54
  00402B10: 8A 54 24 50        mov         dl,byte ptr [esp+50h]
  00402B14: 8B CF              mov         ecx,edi
  00402B16: E8 F3 EB FF FF     call        0040170E
  00402B1B: EB 37              jmp         00402B54
  00402B1D: 33 C0              xor         eax,eax
  00402B1F: BA 2A 2B 00 00     mov         edx,2B2Ah
  00402B24: 8B C8              mov         ecx,eax
  00402B26: A1 10 40 40 00     mov         eax,dword ptr ds:[00404010h]
  00402B2B: EB 0D              jmp         00402B3A
  00402B2D: 3B 47 04           cmp         eax,dword ptr [edi+4]
  00402B30: 74 0C              je          00402B3E
  00402B32: 8B 04 CD 18 40 40  mov         eax,dword ptr [ecx*8+00404018h]
            00
  00402B39: 41                 inc         ecx
  00402B3A: 3B C2              cmp         eax,edx
  00402B3C: 75 EF              jne         00402B2D
  00402B3E: FF 34 CD 14 40 40  push        dword ptr [ecx*8+00404014h]
            00
  00402B45: 56                 push        esi
  00402B46: E8 2E 0E 00 00     call        00403979
  00402B4B: 59                 pop         ecx
  00402B4C: 50                 push        eax
  00402B4D: E8 EA 05 00 00     call        0040313C
  00402B52: 59                 pop         ecx
  00402B53: 59                 pop         ecx
  00402B54: FF 05 10 44 40 00  inc         dword ptr ds:[00404410h]
  00402B5A: 83 C7 1C           add         edi,1Ch
  00402B5D: 8B 44 24 3C        mov         eax,dword ptr [esp+3Ch]
  00402B61: 85 C0              test        eax,eax
  00402B63: 0F 85 63 FE FF FF  jne         004029CC
  00402B69: 8B 4C 24 34        mov         ecx,dword ptr [esp+34h]
  00402B6D: 8B 44 24 0C        mov         eax,dword ptr [esp+0Ch]
  00402B71: 49                 dec         ecx
  00402B72: 3B C1              cmp         eax,ecx
  00402B74: 0F 83 1E 02 00 00  jae         00402D98
  00402B7A: 81 7F EC E8 03 00  cmp         dword ptr [edi-14h],3E8h
            00
  00402B81: 0F 83 11 02 00 00  jae         00402D98
  00402B87: B8 E8 03 00 00     mov         eax,3E8h
  00402B8C: 2B 47 EC           sub         eax,dword ptr [edi-14h]
  00402B8F: E9 F9 01 00 00     jmp         00402D8D
  00402B94: 68 40 54 40 00     push        405440h
  00402B99: 8D 84 24 84 00 00  lea         eax,[esp+00000084h]
            00
  00402BA0: 50                 push        eax
  00402BA1: 52                 push        edx
  00402BA2: 52                 push        edx
  00402BA3: 52                 push        edx
  00402BA4: FF 74 24 54        push        dword ptr [esp+54h]
  00402BA8: FF 15 04 60 40 00  call        dword ptr ds:[00406004h]
  00402BAE: FF 05 0C 44 40 00  inc         dword ptr ds:[0040440Ch]
  00402BB4: 85 C0              test        eax,eax
  00402BB6: 0F 85 86 00 00 00  jne         00402C42
  00402BBC: FF 15 58 60 40 00  call        dword ptr ds:[00406058h]
  00402BC2: 8B C8              mov         ecx,eax
  00402BC4: 81 F9 F8 2A 00 00  cmp         ecx,2AF8h
  00402BCA: 73 1D              jae         00402BE9
  00402BCC: E8 1F E9 FF FF     call        004014F0
  00402BD1: 50                 push        eax
  00402BD2: 68 22 27 00 00     push        2722h
  00402BD7: 56                 push        esi
  00402BD8: E8 9C 0D 00 00     call        00403979
  00402BDD: 59                 pop         ecx
  00402BDE: 50                 push        eax
  00402BDF: E8 58 05 00 00     call        0040313C
  00402BE4: 83 C4 0C           add         esp,0Ch
  00402BE7: EB 34              jmp         00402C1D
  00402BE9: 33 C0              xor         eax,eax
  00402BEB: 8B D0              mov         edx,eax
  00402BED: A1 10 40 40 00     mov         eax,dword ptr ds:[00404010h]
  00402BF2: EB 0F              jmp         00402C03
  00402BF4: 3D 2A 2B 00 00     cmp         eax,2B2Ah
  00402BF9: 74 0C              je          00402C07
  00402BFB: 8B 04 D5 18 40 40  mov         eax,dword ptr [edx*8+00404018h]
            00
  00402C02: 42                 inc         edx
  00402C03: 3B C1              cmp         eax,ecx
  00402C05: 75 ED              jne         00402BF4
  00402C07: FF 34 D5 14 40 40  push        dword ptr [edx*8+00404014h]
            00
  00402C0E: 56                 push        esi
  00402C0F: E8 65 0D 00 00     call        00403979
  00402C14: 59                 pop         ecx
  00402C15: 50                 push        eax
  00402C16: E8 21 05 00 00     call        0040313C
  00402C1B: 59                 pop         ecx
  00402C1C: 59                 pop         ecx
  00402C1D: 8B 4C 24 34        mov         ecx,dword ptr [esp+34h]
  00402C21: 8B 44 24 0C        mov         eax,dword ptr [esp+0Ch]
  00402C25: 49                 dec         ecx
  00402C26: 3B C1              cmp         eax,ecx
  00402C28: 0F 83 6E 01 00 00  jae         00402D9C
  00402C2E: 68 E8 03 00 00     push        3E8h
  00402C33: FF 15 CC 60 40 00  call        dword ptr ds:[004060CCh]
  00402C39: 8B 44 24 0C        mov         eax,dword ptr [esp+0Ch]
  00402C3D: E9 5A 01 00 00     jmp         00402D9C
  00402C42: 8B 7C 24 48        mov         edi,dword ptr [esp+48h]
  00402C46: 6A 02              push        2
  00402C48: 48                 dec         eax
  00402C49: 89 44 24 48        mov         dword ptr [esp+48h],eax
  00402C4D: 58                 pop         eax
  00402C4E: 50                 push        eax
  00402C4F: 33 C0              xor         eax,eax
  00402C51: 50                 push        eax
  00402C52: 50                 push        eax
  00402C53: 6A 41              push        41h
  00402C55: 8D 84 24 F8 00 00  lea         eax,[esp+000000F8h]
            00
  00402C5C: 50                 push        eax
  00402C5D: FF 35 C0 54 40 00  push        dword ptr ds:[004054C0h]
  00402C63: 68 40 54 40 00     push        405440h
  00402C68: FF 15 3C 60 40 00  call        dword ptr ds:[0040603Ch]
  00402C6E: 85 C0              test        eax,eax
  00402C70: 74 18              je          00402C8A
  00402C72: 33 C0              xor         eax,eax
  00402C74: 68 82 00 00 00     push        82h
  00402C79: 50                 push        eax
  00402C7A: 8D 84 24 F0 00 00  lea         eax,[esp+000000F0h]
            00
  00402C81: 50                 push        eax
  00402C82: E8 12 0D 00 00     call        00403999
  00402C87: 83 C4 0C           add         esp,0Ch
  00402C8A: 8D 84 24 E8 00 00  lea         eax,[esp+000000E8h]
            00
  00402C91: 50                 push        eax
  00402C92: 68 23 27 00 00     push        2723h
  00402C97: 56                 push        esi
  00402C98: E8 DC 0C 00 00     call        00403979
  00402C9D: 59                 pop         ecx
  00402C9E: 50                 push        eax
  00402C9F: E8 98 04 00 00     call        0040313C
  00402CA4: 83 C4 0C           add         esp,0Ch
  00402CA7: 83 7F 1C 00        cmp         dword ptr [edi+1Ch],0
  00402CAB: 75 6E              jne         00402D1B
  00402CAD: FF 05 18 44 40 00  inc         dword ptr ds:[00404418h]
  00402CB3: 83 7F 20 00        cmp         dword ptr [edi+20h],0
  00402CB7: 74 3D              je          00402CF6
  00402CB9: FF 77 20           push        dword ptr [edi+20h]
  00402CBC: 68 26 27 00 00     push        2726h
  00402CC1: 56                 push        esi
  00402CC2: E8 B2 0C 00 00     call        00403979
  00402CC7: 59                 pop         ecx
  00402CC8: 50                 push        eax
  00402CC9: E8 6E 04 00 00     call        0040313C
  00402CCE: 8B 47 20           mov         eax,dword ptr [edi+20h]
  00402CD1: 83 C4 0C           add         esp,0Ch
  00402CD4: 01 05 1C 44 40 00  add         dword ptr ds:[0040441Ch],eax
  00402CDA: 3B 05 B0 40 40 00  cmp         eax,dword ptr ds:[004040B0h]
  00402CE0: 73 05              jae         00402CE7
  00402CE2: A3 B0 40 40 00     mov         dword ptr ds:[004040B0h],eax
  00402CE7: 3B 05 14 44 40 00  cmp         eax,dword ptr ds:[00404414h]
  00402CED: 76 22              jbe         00402D11
  00402CEF: A3 14 44 40 00     mov         dword ptr ds:[00404414h],eax
  00402CF4: EB 1B              jmp         00402D11
  00402CF6: 68 27 27 00 00     push        2727h
  00402CFB: 56                 push        esi
  00402CFC: E8 78 0C 00 00     call        00403979
  00402D01: 59                 pop         ecx
  00402D02: 50                 push        eax
  00402D03: E8 34 04 00 00     call        0040313C
  00402D08: 59                 pop         ecx
  00402D09: 33 C0              xor         eax,eax
  00402D0B: 59                 pop         ecx
  00402D0C: A3 B0 40 40 00     mov         dword ptr ds:[004040B0h],eax
  00402D11: C7 44 24 40 3F 27  mov         dword ptr [esp+40h],273Fh
            00 00
  00402D19: EB 2C              jmp         00402D47
  00402D1B: 33 C0              xor         eax,eax
  00402D1D: BA 2A 2B 00 00     mov         edx,2B2Ah
  00402D22: 8B C8              mov         ecx,eax
  00402D24: A1 10 40 40 00     mov         eax,dword ptr ds:[00404010h]
  00402D29: EB 0D              jmp         00402D38
  00402D2B: 3B 47 1C           cmp         eax,dword ptr [edi+1Ch]
  00402D2E: 74 0C              je          00402D3C
  00402D30: 8B 04 CD 18 40 40  mov         eax,dword ptr [ecx*8+00404018h]
            00
  00402D37: 41                 inc         ecx
  00402D38: 3B C2              cmp         eax,edx
  00402D3A: 75 EF              jne         00402D2B
  00402D3C: 8B 04 CD 14 40 40  mov         eax,dword ptr [ecx*8+00404014h]
            00
  00402D43: 89 44 24 40        mov         dword ptr [esp+40h],eax
  00402D47: 56                 push        esi
  00402D48: E8 2C 0C 00 00     call        00403979
  00402D4D: 59                 pop         ecx
  00402D4E: FF 74 24 40        push        dword ptr [esp+40h]
  00402D52: 50                 push        eax
  00402D53: E8 E4 03 00 00     call        0040313C
  00402D58: FF 05 10 44 40 00  inc         dword ptr ds:[00404410h]
  00402D5E: 83 C7 24           add         edi,24h
  00402D61: 8B 44 24 4C        mov         eax,dword ptr [esp+4Ch]
  00402D65: 59                 pop         ecx
  00402D66: 59                 pop         ecx
  00402D67: 85 C0              test        eax,eax
  00402D69: 0F 85 D7 FE FF FF  jne         00402C46
  00402D6F: 8B 4C 24 34        mov         ecx,dword ptr [esp+34h]
  00402D73: 8B 44 24 0C        mov         eax,dword ptr [esp+0Ch]
  00402D77: 49                 dec         ecx
  00402D78: 3B C1              cmp         eax,ecx
  00402D7A: 73 1C              jae         00402D98
  00402D7C: 81 7F FC E8 03 00  cmp         dword ptr [edi-4],3E8h
            00
  00402D83: 73 13              jae         00402D98
  00402D85: B8 E8 03 00 00     mov         eax,3E8h
  00402D8A: 2B 47 FC           sub         eax,dword ptr [edi-4]
  00402D8D: 50                 push        eax
  00402D8E: FF 15 CC 60 40 00  call        dword ptr ds:[004060CCh]
  00402D94: 8B 44 24 0C        mov         eax,dword ptr [esp+0Ch]
  00402D98: 8B 7C 24 08        mov         edi,dword ptr [esp+8]
  00402D9C: 40                 inc         eax
  00402D9D: 6A 00              push        0
  00402D9F: 89 44 24 10        mov         dword ptr [esp+10h],eax
  00402DA3: 5A                 pop         edx
  00402DA4: 3B 44 24 34        cmp         eax,dword ptr [esp+34h]
  00402DA8: 0F 82 48 FB FF FF  jb          004028F6
  00402DAE: 33 C0              xor         eax,eax
  00402DB0: 39 05 10 44 40 00  cmp         dword ptr ds:[00404410h],eax
  00402DB6: 0F 94 C0           sete        al
  00402DB9: 89 44 24 44        mov         dword ptr [esp+44h],eax
  00402DBD: E8 39 EE FF FF     call        00401BFB
  00402DC2: 8B 74 24 44        mov         esi,dword ptr [esp+44h]
  00402DC6: FF 74 24 28        push        dword ptr [esp+28h]
  00402DCA: FF 15 14 60 40 00  call        dword ptr ds:[00406014h]
  00402DD0: 85 FF              test        edi,edi
  00402DD2: 74 07              je          00402DDB
  00402DD4: 57                 push        edi
  00402DD5: FF 15 70 60 40 00  call        dword ptr ds:[00406070h]
  00402DDB: 8B 44 24 48        mov         eax,dword ptr [esp+48h]
  00402DDF: 85 C0              test        eax,eax
  00402DE1: 74 20              je          00402E03
  00402DE3: 50                 push        eax
  00402DE4: FF 15 70 60 40 00  call        dword ptr ds:[00406070h]
  00402DEA: EB 17              jmp         00402E03
  00402DEC: 68 1E 27 00 00     push        271Eh
  00402DF1: 51                 push        ecx
  00402DF2: E8 82 0B 00 00     call        00403979
  00402DF7: 59                 pop         ecx
  00402DF8: 50                 push        eax
  00402DF9: E8 3E 03 00 00     call        0040313C
  00402DFE: 59                 pop         ecx
  00402DFF: 59                 pop         ecx
  00402E00: 33 F6              xor         esi,esi
  00402E02: 46                 inc         esi
  00402E03: FF 15 30 60 40 00  call        dword ptr ds:[00406030h]
  00402E09: E9 E0 F0 FF FF     jmp         00401EEE
  00402E0E: 8B FF              mov         edi,edi
  00402E10: 55                 push        ebp
  00402E11: 8B EC              mov         ebp,esp
  00402E13: 51                 push        ecx
  00402E14: 53                 push        ebx
  00402E15: 57                 push        edi
  00402E16: 51                 push        ecx
  00402E17: 8B DA              mov         ebx,edx
  00402E19: FF 15 14 61 40 00  call        dword ptr ds:[00406114h]
  00402E1F: 50                 push        eax
  00402E20: FF 15 00 61 40 00  call        dword ptr ds:[00406100h]
  00402E26: 8B F8              mov         edi,eax
  00402E28: 59                 pop         ecx
  00402E29: 59                 pop         ecx
  00402E2A: 83 FF FF           cmp         edi,0FFFFFFFFh
  00402E2D: 75 05              jne         00402E34
  00402E2F: 6A 06              push        6
  00402E31: 58                 pop         eax
  00402E32: EB 51              jmp         00402E85
  00402E34: 56                 push        esi
  00402E35: 57                 push        edi
  00402E36: FF 15 60 60 40 00  call        dword ptr ds:[00406060h]
  00402E3C: 8B F0              mov         esi,eax
  00402E3E: 85 F6              test        esi,esi
  00402E40: 75 12              jne         00402E54
  00402E42: FF 15 58 60 40 00  call        dword ptr ds:[00406058h]
  00402E48: 85 C0              test        eax,eax
  00402E4A: 74 08              je          00402E54
  00402E4C: FF 15 58 60 40 00  call        dword ptr ds:[00406058h]
  00402E52: EB 30              jmp         00402E84
  00402E54: 81 E6 FF 7F FF FF  and         esi,0FFFF7FFFh
  00402E5A: 83 FE 02           cmp         esi,2
  00402E5D: 75 1F              jne         00402E7E
  00402E5F: 8D 45 FC           lea         eax,[ebp-4]
  00402E62: 50                 push        eax
  00402E63: 57                 push        edi
  00402E64: FF 15 48 60 40 00  call        dword ptr ds:[00406048h]
  00402E6A: 85 C0              test        eax,eax
  00402E6C: 75 0B              jne         00402E79
  00402E6E: FF 15 58 60 40 00  call        dword ptr ds:[00406058h]
  00402E74: 83 F8 06           cmp         eax,6
  00402E77: 74 05              je          00402E7E
  00402E79: 33 C0              xor         eax,eax
  00402E7B: 40                 inc         eax
  00402E7C: EB 02              jmp         00402E80
  00402E7E: 33 C0              xor         eax,eax
  00402E80: 89 03              mov         dword ptr [ebx],eax
  00402E82: 33 C0              xor         eax,eax
  00402E84: 5E                 pop         esi
  00402E85: 5F                 pop         edi
  00402E86: 5B                 pop         ebx
  00402E87: C9                 leave
  00402E88: C3                 ret
  00402E89: 8B FF              mov         edi,edi
  00402E8B: 55                 push        ebp
  00402E8C: 8B EC              mov         ebp,esp
  00402E8E: 81 EC A4 00 00 00  sub         esp,0A4h
  00402E94: A1 04 40 40 00     mov         eax,dword ptr ds:[00404004h]
  00402E99: 33 C5              xor         eax,ebp
  00402E9B: 89 45 FC           mov         dword ptr [ebp-4],eax
  00402E9E: 56                 push        esi
  00402E9F: 6A 50              push        50h
  00402EA1: 8D 85 5C FF FF FF  lea         eax,[ebp+FFFFFF5Ch]
  00402EA7: 8B F1              mov         esi,ecx
  00402EA9: 50                 push        eax
  00402EAA: 68 A0 11 40 00     push        4011A0h
  00402EAF: FF 15 90 60 40 00  call        dword ptr ds:[00406090h]
  00402EB5: C7 06 01 00 00 00  mov         dword ptr [esi],1
  00402EBB: 85 C0              test        eax,eax
  00402EBD: 74 72              je          00402F31
  00402EBF: 83 F8 4F           cmp         eax,4Fh
  00402EC2: 73 6D              jae         00402F31
  00402EC4: 8D 8D 5C FF FF FF  lea         ecx,[ebp+FFFFFF5Ch]
  00402ECA: 68 C0 11 40 00     push        4011C0h
  00402ECF: 51                 push        ecx
  00402ED0: FF 15 44 61 40 00  call        dword ptr ds:[00406144h]
  00402ED6: 59                 pop         ecx
  00402ED7: 59                 pop         ecx
  00402ED8: 85 C0              test        eax,eax
  00402EDA: 75 03              jne         00402EDF
  00402EDC: 40                 inc         eax
  00402EDD: EB 54              jmp         00402F33
  00402EDF: 8D 85 5C FF FF FF  lea         eax,[ebp+FFFFFF5Ch]
  00402EE5: 68 D0 11 40 00     push        4011D0h
  00402EEA: 50                 push        eax
  00402EEB: FF 15 44 61 40 00  call        dword ptr ds:[00406144h]
  00402EF1: 59                 pop         ecx
  00402EF2: 59                 pop         ecx
  00402EF3: 85 C0              test        eax,eax
  00402EF5: 75 04              jne         00402EFB
  00402EF7: 21 06              and         dword ptr [esi],eax
  00402EF9: EB 36              jmp         00402F31
  00402EFB: 8D 85 5C FF FF FF  lea         eax,[ebp+FFFFFF5Ch]
  00402F01: 68 DC 11 40 00     push        4011DCh
  00402F06: 50                 push        eax
  00402F07: FF 15 44 61 40 00  call        dword ptr ds:[00406144h]
  00402F0D: 59                 pop         ecx
  00402F0E: 59                 pop         ecx
  00402F0F: 85 C0              test        eax,eax
  00402F11: 74 18              je          00402F2B
  00402F13: 8D 85 5C FF FF FF  lea         eax,[ebp+FFFFFF5Ch]
  00402F19: 68 E8 11 40 00     push        4011E8h
  00402F1E: 50                 push        eax
  00402F1F: FF 15 44 61 40 00  call        dword ptr ds:[00406144h]
  00402F25: 59                 pop         ecx
  00402F26: 59                 pop         ecx
  00402F27: 85 C0              test        eax,eax
  00402F29: 75 06              jne         00402F31
  00402F2B: C7 06 E9 FD 00 00  mov         dword ptr [esi],0FDE9h
  00402F31: 33 C0              xor         eax,eax
  00402F33: 8B 4D FC           mov         ecx,dword ptr [ebp-4]
  00402F36: 33 CD              xor         ecx,ebp
  00402F38: 5E                 pop         esi
  00402F39: E8 22 05 00 00     call        00403460
  00402F3E: C9                 leave
  00402F3F: C3                 ret
  00402F40: 8B FF              mov         edi,edi
  00402F42: 55                 push        ebp
  00402F43: 8B EC              mov         ebp,esp
  00402F45: 83 EC 0C           sub         esp,0Ch
  00402F48: 8D 55 FC           lea         edx,[ebp-4]
  00402F4B: 56                 push        esi
  00402F4C: 8B F1              mov         esi,ecx
  00402F4E: E8 BB FE FF FF     call        00402E0E
  00402F53: 85 C0              test        eax,eax
  00402F55: 0F 85 A4 00 00 00  jne         00402FFF
  00402F5B: 39 45 FC           cmp         dword ptr [ebp-4],eax
  00402F5E: 0F 85 9B 00 00 00  jne         00402FFF
  00402F64: 8D 4D FC           lea         ecx,[ebp-4]
  00402F67: E8 1D FF FF FF     call        00402E89
  00402F6C: 85 C0              test        eax,eax
  00402F6E: 74 3E              je          00402FAE
  00402F70: 8D 45 F4           lea         eax,[ebp-0Ch]
  00402F73: 50                 push        eax
  00402F74: 56                 push        esi
  00402F75: FF 15 1C 61 40 00  call        dword ptr ds:[0040611Ch]
  00402F7B: 59                 pop         ecx
  00402F7C: 59                 pop         ecx
  00402F7D: 85 C0              test        eax,eax
  00402F7F: 75 7E              jne         00402FFF
  00402F81: 8B 45 F4           mov         eax,dword ptr [ebp-0Ch]
  00402F84: 0B 45 F8           or          eax,dword ptr [ebp-8]
  00402F87: 75 76              jne         00402FFF
  00402F89: 68 00 00 02 00     push        20000h
  00402F8E: 56                 push        esi
  00402F8F: FF 15 14 61 40 00  call        dword ptr ds:[00406114h]
  00402F95: 59                 pop         ecx
  00402F96: 50                 push        eax
  00402F97: FF 15 0C 61 40 00  call        dword ptr ds:[0040610Ch]
  00402F9D: 68 F4 11 40 00     push        4011F4h
  00402FA2: 56                 push        esi
  00402FA3: FF 15 20 61 40 00  call        dword ptr ds:[00406120h]
  00402FA9: 83 C4 10           add         esp,10h
  00402FAC: EB 51              jmp         00402FFF
  00402FAE: 81 7D FC E9 FD 00  cmp         dword ptr [ebp-4],0FDE9h
            00
  00402FB5: 75 48              jne         00402FFF
  00402FB7: 8D 45 F4           lea         eax,[ebp-0Ch]
  00402FBA: 50                 push        eax
  00402FBB: 56                 push        esi
  00402FBC: FF 15 1C 61 40 00  call        dword ptr ds:[0040611Ch]
  00402FC2: 59                 pop         ecx
  00402FC3: 59                 pop         ecx
  00402FC4: 85 C0              test        eax,eax
  00402FC6: 75 37              jne         00402FFF
  00402FC8: 8B 45 F4           mov         eax,dword ptr [ebp-0Ch]
  00402FCB: 0B 45 F8           or          eax,dword ptr [ebp-8]
  00402FCE: 75 2F              jne         00402FFF
  00402FD0: 68 00 80 00 00     push        8000h
  00402FD5: 56                 push        esi
  00402FD6: FF 15 14 61 40 00  call        dword ptr ds:[00406114h]
  00402FDC: 59                 pop         ecx
  00402FDD: 50                 push        eax
  00402FDE: FF 15 0C 61 40 00  call        dword ptr ds:[0040610Ch]
  00402FE4: 59                 pop         ecx
  00402FE5: 59                 pop         ecx
  00402FE6: 6A 03              push        3
  00402FE8: 68 F8 11 40 00     push        4011F8h
  00402FED: 56                 push        esi
  00402FEE: FF 15 14 61 40 00  call        dword ptr ds:[00406114h]
  00402FF4: 59                 pop         ecx
  00402FF5: 50                 push        eax
  00402FF6: FF 15 10 61 40 00  call        dword ptr ds:[00406110h]
  00402FFC: 83 C4 0C           add         esp,0Ch
  00402FFF: 5E                 pop         esi
  00403000: C9                 leave
  00403001: C3                 ret
  00403002: 8B FF              mov         edi,edi
  00403004: 55                 push        ebp
  00403005: 8B EC              mov         ebp,esp
  00403007: 83 EC 10           sub         esp,10h
  0040300A: 53                 push        ebx
  0040300B: 56                 push        esi
  0040300C: 57                 push        edi
  0040300D: 8B F1              mov         esi,ecx
  0040300F: 89 55 FC           mov         dword ptr [ebp-4],edx
  00403012: 56                 push        esi
  00403013: 33 DB              xor         ebx,ebx
  00403015: C7 45 F8 01 00 00  mov         dword ptr [ebp-8],1
            00
  0040301C: 33 FF              xor         edi,edi
  0040301E: FF 15 08 61 40 00  call        dword ptr ds:[00406108h]
  00403024: 59                 pop         ecx
  00403025: 8D 55 F8           lea         edx,[ebp-8]
  00403028: 8B CE              mov         ecx,esi
  0040302A: E8 DF FD FF FF     call        00402E0E
  0040302F: 85 C0              test        eax,eax
  00403031: 75 05              jne         00403038
  00403033: 39 5D F8           cmp         dword ptr [ebp-8],ebx
  00403036: 74 18              je          00403050
  00403038: 68 00 00 02 00     push        20000h
  0040303D: 56                 push        esi
  0040303E: FF 15 14 61 40 00  call        dword ptr ds:[00406114h]
  00403044: 59                 pop         ecx
  00403045: 50                 push        eax
  00403046: FF 15 0C 61 40 00  call        dword ptr ds:[0040610Ch]
  0040304C: 59                 pop         ecx
  0040304D: 59                 pop         ecx
  0040304E: 8B D8              mov         ebx,eax
  00403050: 8D 4D F0           lea         ecx,[ebp-10h]
  00403053: E8 31 FE FF FF     call        00402E89
  00403058: 89 45 F4           mov         dword ptr [ebp-0Ch],eax
  0040305B: 39 7D F8           cmp         dword ptr [ebp-8],edi
  0040305E: 0F 85 9C 00 00 00  jne         00403100
  00403064: 6A 0D              push        0Dh
  00403066: FF 75 FC           push        dword ptr [ebp-4]
  00403069: FF 15 18 61 40 00  call        dword ptr ds:[00406118h]
  0040306F: 59                 pop         ecx
  00403070: 59                 pop         ecx
  00403071: 85 C0              test        eax,eax
  00403073: 74 07              je          0040307C
  00403075: 68 00 80 00 00     push        8000h
  0040307A: EB 12              jmp         0040308E
  0040307C: 8B 45 F4           mov         eax,dword ptr [ebp-0Ch]
  0040307F: F7 D8              neg         eax
  00403081: 1B C0              sbb         eax,eax
  00403083: 25 00 C0 01 00     and         eax,1C000h
  00403088: 05 00 40 00 00     add         eax,4000h
  0040308D: 50                 push        eax
  0040308E: 56                 push        esi
  0040308F: FF 15 14 61 40 00  call        dword ptr ds:[00406114h]
  00403095: 59                 pop         ecx
  00403096: 50                 push        eax
  00403097: FF 15 0C 61 40 00  call        dword ptr ds:[0040610Ch]
  0040309D: 8B D8              mov         ebx,eax
  0040309F: 59                 pop         ecx
  004030A0: 59                 pop         ecx
  004030A1: 39 7D F4           cmp         dword ptr [ebp-0Ch],edi
  004030A4: 75 5A              jne         00403100
  004030A6: 33 C0              xor         eax,eax
  004030A8: 50                 push        eax
  004030A9: 50                 push        eax
  004030AA: 50                 push        eax
  004030AB: 50                 push        eax
  004030AC: 6A FF              push        0FFFFFFFFh
  004030AE: FF 75 FC           push        dword ptr [ebp-4]
  004030B1: 50                 push        eax
  004030B2: FF 75 F0           push        dword ptr [ebp-10h]
  004030B5: FF 15 C4 60 40 00  call        dword ptr ds:[004060C4h]
  004030BB: 89 45 F4           mov         dword ptr [ebp-0Ch],eax
  004030BE: 85 C0              test        eax,eax
  004030C0: 74 50              je          00403112
  004030C2: 50                 push        eax
  004030C3: 6A 40              push        40h
  004030C5: FF 15 74 60 40 00  call        dword ptr ds:[00406074h]
  004030CB: 8B F8              mov         edi,eax
  004030CD: 85 FF              test        edi,edi
  004030CF: 74 41              je          00403112
  004030D1: 6A 00              push        0
  004030D3: 6A 00              push        0
  004030D5: FF 75 F4           push        dword ptr [ebp-0Ch]
  004030D8: 57                 push        edi
  004030D9: 6A FF              push        0FFFFFFFFh
  004030DB: FF 75 FC           push        dword ptr [ebp-4]
  004030DE: 6A 00              push        0
  004030E0: FF 75 F0           push        dword ptr [ebp-10h]
  004030E3: FF 15 C4 60 40 00  call        dword ptr ds:[004060C4h]
  004030E9: 8B 45 F4           mov         eax,dword ptr [ebp-0Ch]
  004030EC: 48                 dec         eax
  004030ED: 50                 push        eax
  004030EE: 57                 push        edi
  004030EF: 56                 push        esi
  004030F0: FF 15 14 61 40 00  call        dword ptr ds:[00406114h]
  004030F6: 59                 pop         ecx
  004030F7: 50                 push        eax
  004030F8: FF 15 10 61 40 00  call        dword ptr ds:[00406110h]
  004030FE: EB 0F              jmp         0040310F
  00403100: FF 75 FC           push        dword ptr [ebp-4]
  00403103: 68 FC 11 40 00     push        4011FCh
  00403108: 56                 push        esi
  00403109: FF 15 20 61 40 00  call        dword ptr ds:[00406120h]
  0040310F: 83 C4 0C           add         esp,0Ch
  00403112: 56                 push        esi
  00403113: FF 15 08 61 40 00  call        dword ptr ds:[00406108h]
  00403119: 59                 pop         ecx
  0040311A: 53                 push        ebx
  0040311B: 56                 push        esi
  0040311C: FF 15 14 61 40 00  call        dword ptr ds:[00406114h]
  00403122: 59                 pop         ecx
  00403123: 50                 push        eax
  00403124: FF 15 0C 61 40 00  call        dword ptr ds:[0040610Ch]
  0040312A: 59                 pop         ecx
  0040312B: 59                 pop         ecx
  0040312C: 85 FF              test        edi,edi
  0040312E: 74 07              je          00403137
  00403130: 57                 push        edi
  00403131: FF 15 70 60 40 00  call        dword ptr ds:[00406070h]
  00403137: 5F                 pop         edi
  00403138: 5E                 pop         esi
  00403139: 5B                 pop         ebx
  0040313A: C9                 leave
  0040313B: C3                 ret
  0040313C: 8B FF              mov         edi,edi
  0040313E: 55                 push        ebp
  0040313F: 8B EC              mov         ebp,esp
  00403141: 51                 push        ecx
  00403142: 51                 push        ecx
  00403143: 8D 45 10           lea         eax,[ebp+10h]
  00403146: 89 45 F8           mov         dword ptr [ebp-8],eax
  00403149: 8D 45 F8           lea         eax,[ebp-8]
  0040314C: 50                 push        eax
  0040314D: 6A 00              push        0
  0040314F: 8D 45 FC           lea         eax,[ebp-4]
  00403152: 50                 push        eax
  00403153: 6A 00              push        0
  00403155: FF 75 0C           push        dword ptr [ebp+0Ch]
  00403158: FF 35 20 44 40 00  push        dword ptr ds:[00404420h]
  0040315E: 68 00 09 00 00     push        900h
  00403163: FF 15 88 60 40 00  call        dword ptr ds:[00406088h]
  00403169: 85 C0              test        eax,eax
  0040316B: 74 14              je          00403181
  0040316D: 8B 55 FC           mov         edx,dword ptr [ebp-4]
  00403170: 8B 4D 08           mov         ecx,dword ptr [ebp+8]
  00403173: E8 8A FE FF FF     call        00403002
  00403178: FF 75 FC           push        dword ptr [ebp-4]
  0040317B: FF 15 70 60 40 00  call        dword ptr ds:[00406070h]
  00403181: C9                 leave
  00403182: C3                 ret
  00403183: CC                 int         3
  00403184: CC                 int         3
  00403185: CC                 int         3
  00403186: CC                 int         3
  00403187: CC                 int         3
  00403188: CC                 int         3
  00403189: CC                 int         3
  0040318A: CC                 int         3
  0040318B: CC                 int         3
  0040318C: CC                 int         3
  0040318D: CC                 int         3
  0040318E: CC                 int         3
  0040318F: CC                 int         3
  00403190: E8 48 02 00 00     call        004033DD
  00403195: 6A 01              push        1
  00403197: A3 D8 40 40 00     mov         dword ptr ds:[004040D8h],eax
  0040319C: E8 E7 04 00 00     call        00403688
  004031A1: 50                 push        eax
  004031A2: FF 15 E0 60 40 00  call        dword ptr ds:[004060E0h]
  004031A8: 83 0D 28 54 40 00  or          dword ptr ds:[00405428h],0FFFFFFFFh
            FF
  004031AF: 83 0D 2C 54 40 00  or          dword ptr ds:[0040542Ch],0FFFFFFFFh
            FF
  004031B6: 59                 pop         ecx
  004031B7: 59                 pop         ecx
  004031B8: FF 15 E4 60 40 00  call        dword ptr ds:[004060E4h]
  004031BE: 8B 0D 08 44 40 00  mov         ecx,dword ptr ds:[00404408h]
  004031C4: 89 08              mov         dword ptr [eax],ecx
  004031C6: FF 15 28 61 40 00  call        dword ptr ds:[00406128h]
  004031CC: 8B 0D FC 43 40 00  mov         ecx,dword ptr ds:[004043FCh]
  004031D2: 89 08              mov         dword ptr [eax],ecx
  004031D4: E8 F7 04 00 00     call        004036D0
  004031D9: 83 3D 00 40 40 00  cmp         dword ptr ds:[00404000h],0
            00
  004031E0: 75 0C              jne         004031EE
  004031E2: 68 D0 36 40 00     push        4036D0h
  004031E7: FF 15 F8 60 40 00  call        dword ptr ds:[004060F8h]
  004031ED: 59                 pop         ecx
  004031EE: E8 CA 06 00 00     call        004038BD
  004031F3: 33 C0              xor         eax,eax
  004031F5: C3                 ret
  004031F6: CC                 int         3
  004031F7: CC                 int         3
  004031F8: CC                 int         3
  004031F9: CC                 int         3
  004031FA: CC                 int         3
  004031FB: CC                 int         3
  004031FC: CC                 int         3
  004031FD: CC                 int         3
  004031FE: CC                 int         3
  004031FF: CC                 int         3
  00403200: A1 04 44 40 00     mov         eax,dword ptr ds:[00404404h]
  00403205: 68 DC 40 40 00     push        4040DCh
  0040320A: FF 35 00 44 40 00  push        dword ptr ds:[00404400h]
  00403210: A3 DC 40 40 00     mov         dword ptr ds:[004040DCh],eax
  00403215: 68 D0 40 40 00     push        4040D0h
  0040321A: 68 CC 40 40 00     push        4040CCh
  0040321F: 68 C8 40 40 00     push        4040C8h
  00403224: FF 15 E8 60 40 00  call        dword ptr ds:[004060E8h]
  0040322A: 83 C4 14           add         esp,14h
  0040322D: A3 D4 40 40 00     mov         dword ptr ds:[004040D4h],eax
  00403232: C3                 ret
  00403233: 6A 0C              push        0Ch
  00403235: 68 A0 39 40 00     push        4039A0h
  0040323A: E8 99 06 00 00     call        004038D8
  0040323F: 33 DB              xor         ebx,ebx
  00403241: 89 5D FC           mov         dword ptr [ebp-4],ebx
  00403244: 64 A1 18 00 00 00  mov         eax,dword ptr fs:[00000018h]
  0040324A: 8B 70 04           mov         esi,dword ptr [eax+4]
  0040324D: 8B FB              mov         edi,ebx
  0040324F: BA 30 54 40 00     mov         edx,405430h
  00403254: 8B CE              mov         ecx,esi
  00403256: 33 C0              xor         eax,eax
  00403258: F0 0F B1 0A        lock cmpxchg dword ptr [edx],ecx
  0040325C: 85 C0              test        eax,eax
  0040325E: 74 18              je          00403278
  00403260: 3B C6              cmp         eax,esi
  00403262: 75 07              jne         0040326B
  00403264: 33 F6              xor         esi,esi
  00403266: 46                 inc         esi
  00403267: 8B FE              mov         edi,esi
  00403269: EB 10              jmp         0040327B
  0040326B: 68 E8 03 00 00     push        3E8h
  00403270: FF 15 CC 60 40 00  call        dword ptr ds:[004060CCh]
  00403276: EB D7              jmp         0040324F
  00403278: 33 F6              xor         esi,esi
  0040327A: 46                 inc         esi
  0040327B: 39 35 34 54 40 00  cmp         dword ptr ds:[00405434h],esi
  00403281: 75 0A              jne         0040328D
  00403283: 6A 1F              push        1Fh
  00403285: E8 34 04 00 00     call        004036BE
  0040328A: 59                 pop         ecx
  0040328B: EB 3A              jmp         004032C7
  0040328D: 39 1D 34 54 40 00  cmp         dword ptr ds:[00405434h],ebx
  00403293: 75 2C              jne         004032C1
  00403295: 89 35 34 54 40 00  mov         dword ptr ds:[00405434h],esi
  0040329B: 68 CC 10 40 00     push        4010CCh
  004032A0: 68 C0 10 40 00     push        4010C0h
  004032A5: E8 02 01 00 00     call        004033AC
  004032AA: 59                 pop         ecx
  004032AB: 59                 pop         ecx
  004032AC: 85 C0              test        eax,eax
  004032AE: 74 17              je          004032C7
  004032B0: C7 45 FC FE FF FF  mov         dword ptr [ebp-4],0FFFFFFFEh
            FF
  004032B7: B8 FF 00 00 00     mov         eax,0FFh
  004032BC: E9 DB 00 00 00     jmp         0040339C
  004032C1: 89 35 C4 40 40 00  mov         dword ptr ds:[004040C4h],esi
  004032C7: 39 35 34 54 40 00  cmp         dword ptr ds:[00405434h],esi
  004032CD: 75 1B              jne         004032EA
  004032CF: 68 BC 10 40 00     push        4010BCh
  004032D4: 68 B4 10 40 00     push        4010B4h
  004032D9: E8 F2 05 00 00     call        004038D0
  004032DE: 59                 pop         ecx
  004032DF: 59                 pop         ecx
  004032E0: C7 05 34 54 40 00  mov         dword ptr ds:[00405434h],2
            02 00 00 00
  004032EA: 85 FF              test        edi,edi
  004032EC: 75 09              jne         004032F7
  004032EE: 33 C0              xor         eax,eax
  004032F0: B9 30 54 40 00     mov         ecx,405430h
  004032F5: 87 01              xchg        eax,dword ptr [ecx]
  004032F7: 83 3D 38 54 40 00  cmp         dword ptr ds:[00405438h],0
            00
  004032FE: 74 23              je          00403323
  00403300: 68 38 54 40 00     push        405438h
  00403305: E8 26 04 00 00     call        00403730
  0040330A: 59                 pop         ecx
  0040330B: 85 C0              test        eax,eax
  0040330D: 74 14              je          00403323
  0040330F: 53                 push        ebx
  00403310: 6A 02              push        2
  00403312: 53                 push        ebx
  00403313: 8B 35 38 54 40 00  mov         esi,dword ptr ds:[00405438h]
  00403319: 8B CE              mov         ecx,esi
  0040331B: FF 15 5C 61 40 00  call        dword ptr ds:[0040615Ch]
  00403321: FF D6              call        esi
  00403323: FF 35 D0 40 40 00  push        dword ptr ds:[004040D0h]
  00403329: FF 35 CC 40 40 00  push        dword ptr ds:[004040CCh]
  0040332F: FF 35 C8 40 40 00  push        dword ptr ds:[004040C8h]
  00403335: E8 EC EA FF FF     call        00401E26
  0040333A: 83 C4 0C           add         esp,0Ch
  0040333D: A3 C0 40 40 00     mov         dword ptr ds:[004040C0h],eax
  00403342: 83 3D D8 40 40 00  cmp         dword ptr ds:[004040D8h],0
            00
  00403349: 75 36              jne         00403381
  0040334B: 50                 push        eax
  0040334C: FF 15 2C 61 40 00  call        dword ptr ds:[0040612Ch]
  00403352: 8B 4D EC           mov         ecx,dword ptr [ebp-14h]
  00403355: 8B 01              mov         eax,dword ptr [ecx]
  00403357: 8B 00              mov         eax,dword ptr [eax]
  00403359: 89 45 E4           mov         dword ptr [ebp-1Ch],eax
  0040335C: 51                 push        ecx
  0040335D: 50                 push        eax
  0040335E: E8 AB 02 00 00     call        0040360E
  00403363: 59                 pop         ecx
  00403364: 59                 pop         ecx
  00403365: C3                 ret
  00403366: 8B 65 E8           mov         esp,dword ptr [ebp-18h]
  00403369: 8B 45 E4           mov         eax,dword ptr [ebp-1Ch]
  0040336C: A3 C0 40 40 00     mov         dword ptr ds:[004040C0h],eax
  00403371: 83 3D D8 40 40 00  cmp         dword ptr ds:[004040D8h],0
            00
  00403378: 75 07              jne         00403381
  0040337A: 50                 push        eax
  0040337B: FF 15 EC 60 40 00  call        dword ptr ds:[004060ECh]
  00403381: 83 3D C4 40 40 00  cmp         dword ptr ds:[004040C4h],0
            00
  00403388: 75 0B              jne         00403395
  0040338A: FF 15 F0 60 40 00  call        dword ptr ds:[004060F0h]
  00403390: A1 C0 40 40 00     mov         eax,dword ptr ds:[004040C0h]
  00403395: C7 45 FC FE FF FF  mov         dword ptr [ebp-4],0FFFFFFFEh
            FF
  0040339C: 8B 4D F0           mov         ecx,dword ptr [ebp-10h]
  0040339F: 64 89 0D 00 00 00  mov         dword ptr fs:[00000000h],ecx
            00
  004033A6: 59                 pop         ecx
  004033A7: 5F                 pop         edi
  004033A8: 5E                 pop         esi
  004033A9: 5B                 pop         ebx
  004033AA: C9                 leave
  004033AB: C3                 ret
  004033AC: 8B FF              mov         edi,edi
  004033AE: 55                 push        ebp
  004033AF: 8B EC              mov         ebp,esp
  004033B1: 56                 push        esi
  004033B2: 8B 75 08           mov         esi,dword ptr [ebp+8]
  004033B5: 33 C0              xor         eax,eax
  004033B7: 3B 75 0C           cmp         esi,dword ptr [ebp+0Ch]
  004033BA: 73 1E              jae         004033DA
  004033BC: 57                 push        edi
  004033BD: 85 C0              test        eax,eax
  004033BF: 75 18              jne         004033D9
  004033C1: 8B 3E              mov         edi,dword ptr [esi]
  004033C3: 85 FF              test        edi,edi
  004033C5: 74 0A              je          004033D1
  004033C7: 8B CF              mov         ecx,edi
  004033C9: FF 15 5C 61 40 00  call        dword ptr ds:[0040615Ch]
  004033CF: FF D7              call        edi
  004033D1: 83 C6 04           add         esi,4
  004033D4: 3B 75 0C           cmp         esi,dword ptr [ebp+0Ch]
  004033D7: 72 E4              jb          004033BD
  004033D9: 5F                 pop         edi
  004033DA: 5E                 pop         esi
  004033DB: 5D                 pop         ebp
  004033DC: C3                 ret
  004033DD: B8 4D 5A 00 00     mov         eax,5A4Dh
  004033E2: 66 39 05 00 00 40  cmp         word ptr ds:[00400000h],ax
            00
  004033E9: 75 55              jne         00403440
  004033EB: 8B 0D 3C 00 40 00  mov         ecx,dword ptr ds:[0040003Ch]
  004033F1: 81 B9 00 00 40 00  cmp         dword ptr [ecx+00400000h],4550h
            50 45 00 00
  004033FB: 75 43              jne         00403440
  004033FD: 0F B7 81 18 00 40  movzx       eax,word ptr [ecx+00400018h]
            00
  00403404: BA 0B 01 00 00     mov         edx,10Bh
  00403409: 66 3B C2           cmp         ax,dx
  0040340C: 74 1F              je          0040342D
  0040340E: BA 0B 02 00 00     mov         edx,20Bh
  00403413: 66 3B C2           cmp         ax,dx
  00403416: 75 28              jne         00403440
  00403418: 83 B9 84 00 40 00  cmp         dword ptr [ecx+00400084h],0Eh
            0E
  0040341F: 76 1F              jbe         00403440
  00403421: 33 C0              xor         eax,eax
  00403423: 39 81 F8 00 40 00  cmp         dword ptr [ecx+004000F8h],eax
  00403429: 0F 95 C0           setne       al
  0040342C: C3                 ret
  0040342D: 83 B9 74 00 40 00  cmp         dword ptr [ecx+00400074h],0Eh
            0E
  00403434: 76 0A              jbe         00403440
  00403436: 33 C0              xor         eax,eax
  00403438: 39 81 E8 00 40 00  cmp         dword ptr [ecx+004000E8h],eax
  0040343E: EB E9              jmp         00403429
  00403440: 33 C0              xor         eax,eax
  00403442: C3                 ret
  00403443: CC                 int         3
  00403444: CC                 int         3
  00403445: CC                 int         3
  00403446: CC                 int         3
  00403447: CC                 int         3
  00403448: CC                 int         3
  00403449: CC                 int         3
  0040344A: CC                 int         3
  0040344B: CC                 int         3
  0040344C: CC                 int         3
  0040344D: CC                 int         3
  0040344E: CC                 int         3
  0040344F: CC                 int         3
  00403450: E8 D0 03 00 00     call        00403825
  00403455: E9 D9 FD FF FF     jmp         00403233
  0040345A: CC                 int         3
  0040345B: CC                 int         3
  0040345C: CC                 int         3
  0040345D: CC                 int         3
  0040345E: CC                 int         3
  0040345F: CC                 int         3
  00403460: 3B 0D 04 40 40 00  cmp         ecx,dword ptr ds:[00404004h]
  00403466: 75 03              jne         0040346B
  00403468: C2 00 00           ret         0
  0040346B: E9 2A 00 00 00     jmp         0040349A
  00403470: 8B FF              mov         edi,edi
  00403472: 55                 push        ebp
  00403473: 8B EC              mov         ebp,esp
  00403475: 6A 00              push        0
  00403477: FF 15 54 60 40 00  call        dword ptr ds:[00406054h]
  0040347D: FF 75 08           push        dword ptr [ebp+8]
  00403480: FF 15 50 60 40 00  call        dword ptr ds:[00406050h]
  00403486: 68 09 04 00 C0     push        0C0000409h
  0040348B: FF 15 9C 60 40 00  call        dword ptr ds:[0040609Ch]
  00403491: 50                 push        eax
  00403492: FF 15 A4 60 40 00  call        dword ptr ds:[004060A4h]
  00403498: 5D                 pop         ebp
  00403499: C3                 ret
  0040349A: 8B FF              mov         edi,edi
  0040349C: 55                 push        ebp
  0040349D: 8B EC              mov         ebp,esp
  0040349F: 81 EC 24 03 00 00  sub         esp,324h
  004034A5: A3 E0 41 40 00     mov         dword ptr ds:[004041E0h],eax
  004034AA: 89 0D DC 41 40 00  mov         dword ptr ds:[004041DCh],ecx
  004034B0: 89 15 D8 41 40 00  mov         dword ptr ds:[004041D8h],edx
  004034B6: 89 1D D4 41 40 00  mov         dword ptr ds:[004041D4h],ebx
  004034BC: 89 35 D0 41 40 00  mov         dword ptr ds:[004041D0h],esi
  004034C2: 89 3D CC 41 40 00  mov         dword ptr ds:[004041CCh],edi
  004034C8: 66 8C 15 F8 41 40  mov         word ptr ds:[004041F8h],ss
            00
  004034CF: 66 8C 0D EC 41 40  mov         word ptr ds:[004041ECh],cs
            00
  004034D6: 66 8C 1D C8 41 40  mov         word ptr ds:[004041C8h],ds
            00
  004034DD: 66 8C 05 C4 41 40  mov         word ptr ds:[004041C4h],es
            00
  004034E4: 66 8C 25 C0 41 40  mov         word ptr ds:[004041C0h],fs
            00
  004034EB: 66 8C 2D BC 41 40  mov         word ptr ds:[004041BCh],gs
            00
  004034F2: 9C                 pushfd
  004034F3: 8F 05 F0 41 40 00  pop         dword ptr ds:[004041F0h]
  004034F9: 8B 45 00           mov         eax,dword ptr [ebp]
  004034FC: A3 E4 41 40 00     mov         dword ptr ds:[004041E4h],eax
  00403501: 8B 45 04           mov         eax,dword ptr [ebp+4]
  00403504: A3 E8 41 40 00     mov         dword ptr ds:[004041E8h],eax
  00403509: 8D 45 08           lea         eax,[ebp+8]
  0040350C: A3 F4 41 40 00     mov         dword ptr ds:[004041F4h],eax
  00403511: 8B 85 DC FC FF FF  mov         eax,dword ptr [ebp+FFFFFCDCh]
  00403517: C7 05 30 41 40 00  mov         dword ptr ds:[00404130h],10001h
            01 00 01 00
  00403521: A1 E8 41 40 00     mov         eax,dword ptr ds:[004041E8h]
  00403526: A3 EC 40 40 00     mov         dword ptr ds:[004040ECh],eax
  0040352B: C7 05 E0 40 40 00  mov         dword ptr ds:[004040E0h],0C0000409h
            09 04 00 C0
  00403535: C7 05 E4 40 40 00  mov         dword ptr ds:[004040E4h],1
            01 00 00 00
  0040353F: C7 05 F0 40 40 00  mov         dword ptr ds:[004040F0h],3
            03 00 00 00
  00403549: 6A 04              push        4
  0040354B: 58                 pop         eax
  0040354C: 6B C0 00           imul        eax,eax,0
  0040354F: C7 80 F4 40 40 00  mov         dword ptr [eax+004040F4h],2
            02 00 00 00
  00403559: 6A 04              push        4
  0040355B: 58                 pop         eax
  0040355C: C1 E0 00           shl         eax,0
  0040355F: 8B 0D 04 40 40 00  mov         ecx,dword ptr ds:[00404004h]
  00403565: 89 88 F4 40 40 00  mov         dword ptr [eax+004040F4h],ecx
  0040356B: 6A 04              push        4
  0040356D: 58                 pop         eax
  0040356E: D1 E0              shl         eax,1
  00403570: 8B 0D 08 40 40 00  mov         ecx,dword ptr ds:[00404008h]
  00403576: 89 88 F4 40 40 00  mov         dword ptr [eax+004040F4h],ecx
  0040357C: 6A 04              push        4
  0040357E: 58                 pop         eax
  0040357F: 6B C0 00           imul        eax,eax,0
  00403582: 8B 0D 04 40 40 00  mov         ecx,dword ptr ds:[00404004h]
  00403588: 89 4C 05 F8        mov         dword ptr [ebp+eax-8],ecx
  0040358C: 6A 04              push        4
  0040358E: 58                 pop         eax
  0040358F: C1 E0 00           shl         eax,0
  00403592: 8B 0D 08 40 40 00  mov         ecx,dword ptr ds:[00404008h]
  00403598: 89 4C 05 F8        mov         dword ptr [ebp+eax-8],ecx
  0040359C: 68 00 10 40 00     push        401000h
  004035A1: E8 CA FE FF FF     call        00403470
  004035A6: C9                 leave
  004035A7: C3                 ret
  004035A8: CC                 int         3
  004035A9: CC                 int         3
  004035AA: CC                 int         3
  004035AB: CC                 int         3
  004035AC: CC                 int         3
  004035AD: CC                 int         3
  004035AE: CC                 int         3
  004035AF: CC                 int         3
  004035B0: 8B FF              mov         edi,edi
  004035B2: 55                 push        ebp
  004035B3: 8B EC              mov         ebp,esp
  004035B5: 8B 45 08           mov         eax,dword ptr [ebp+8]
  004035B8: 8B 00              mov         eax,dword ptr [eax]
  004035BA: 81 38 63 73 6D E0  cmp         dword ptr [eax],0E06D7363h
  004035C0: 75 2B              jne         004035ED
  004035C2: 83 78 10 03        cmp         dword ptr [eax+10h],3
  004035C6: 75 25              jne         004035ED
  004035C8: 8B 40 14           mov         eax,dword ptr [eax+14h]
  004035CB: 3D 20 05 93 19     cmp         eax,19930520h
  004035D0: 74 15              je          004035E7
  004035D2: 3D 21 05 93 19     cmp         eax,19930521h
  004035D7: 74 0E              je          004035E7
  004035D9: 3D 22 05 93 19     cmp         eax,19930522h
  004035DE: 74 07              je          004035E7
  004035E0: 3D 00 40 99 01     cmp         eax,1994000h
  004035E5: 75 06              jne         004035ED
  004035E7: FF 15 40 61 40 00  call        dword ptr ds:[00406140h]
  004035ED: 33 C0              xor         eax,eax
  004035EF: 5D                 pop         ebp
  004035F0: C2 04 00           ret         4
  004035F3: CC                 int         3
  004035F4: CC                 int         3
  004035F5: CC                 int         3
  004035F6: CC                 int         3
  004035F7: CC                 int         3
  004035F8: CC                 int         3
  004035F9: CC                 int         3
  004035FA: CC                 int         3
  004035FB: CC                 int         3
  004035FC: CC                 int         3
  004035FD: CC                 int         3
  004035FE: CC                 int         3
  004035FF: CC                 int         3
  00403600: 68 B0 35 40 00     push        4035B0h
  00403605: FF 15 54 60 40 00  call        dword ptr ds:[00406054h]
  0040360B: 33 C0              xor         eax,eax
  0040360D: C3                 ret
  0040360E: FF 25 30 61 40 00  jmp         dword ptr ds:[00406130h]
  00403614: 6A 0C              push        0Ch
  00403616: 68 C0 39 40 00     push        4039C0h
  0040361B: E8 B8 02 00 00     call        004038D8
  00403620: 33 C9              xor         ecx,ecx
  00403622: 8B 45 08           mov         eax,dword ptr [ebp+8]
  00403625: 85 C0              test        eax,eax
  00403627: 74 4B              je          00403674
  00403629: 83 F8 FF           cmp         eax,0FFFFFFFFh
  0040362C: 74 46              je          00403674
  0040362E: 89 4D FC           mov         dword ptr [ebp-4],ecx
  00403631: BA 4D 5A 00 00     mov         edx,5A4Dh
  00403636: 66 39 10           cmp         word ptr [eax],dx
  00403639: 75 32              jne         0040366D
  0040363B: 8B 50 3C           mov         edx,dword ptr [eax+3Ch]
  0040363E: 85 D2              test        edx,edx
  00403640: 78 2B              js          0040366D
  00403642: 81 FA 00 00 00 10  cmp         edx,10000000h
  00403648: 73 23              jae         0040366D
  0040364A: 03 C2              add         eax,edx
  0040364C: 89 45 E4           mov         dword ptr [ebp-1Ch],eax
  0040364F: 8B 08              mov         ecx,dword ptr [eax]
  00403651: 81 E9 50 45 00 00  sub         ecx,4550h
  00403657: F7 D9              neg         ecx
  00403659: 1B C9              sbb         ecx,ecx
  0040365B: F7 D1              not         ecx
  0040365D: 23 C8              and         ecx,eax
  0040365F: EB 09              jmp         0040366A
  00403661: 33 C0              xor         eax,eax
  00403663: 40                 inc         eax
  00403664: C3                 ret
  00403665: 8B 65 E8           mov         esp,dword ptr [ebp-18h]
  00403668: 33 C9              xor         ecx,ecx
  0040366A: 89 4D E4           mov         dword ptr [ebp-1Ch],ecx
  0040366D: C7 45 FC FE FF FF  mov         dword ptr [ebp-4],0FFFFFFFEh
            FF
  00403674: 8B C1              mov         eax,ecx
  00403676: 8B 4D F0           mov         ecx,dword ptr [ebp-10h]
  00403679: 64 89 0D 00 00 00  mov         dword ptr fs:[00000000h],ecx
            00
  00403680: 59                 pop         ecx
  00403681: 5F                 pop         edi
  00403682: 5E                 pop         esi
  00403683: 5B                 pop         ebx
  00403684: C9                 leave
  00403685: C2 04 00           ret         4
  00403688: 8B FF              mov         edi,edi
  0040368A: 55                 push        ebp
  0040368B: 8B EC              mov         ebp,esp
  0040368D: 6A 00              push        0
  0040368F: FF 15 7C 60 40 00  call        dword ptr ds:[0040607Ch]
  00403695: 85 C0              test        eax,eax
  00403697: 74 20              je          004036B9
  00403699: 50                 push        eax
  0040369A: E8 75 FF FF FF     call        00403614
  0040369F: 85 C0              test        eax,eax
  004036A1: 74 16              je          004036B9
  004036A3: 0F B7 48 5C        movzx       ecx,word ptr [eax+5Ch]
  004036A7: 6A 02              push        2
  004036A9: 58                 pop         eax
  004036AA: 66 3B C8           cmp         cx,ax
  004036AD: 74 0D              je          004036BC
  004036AF: 83 F9 03           cmp         ecx,3
  004036B2: 75 05              jne         004036B9
  004036B4: 33 C0              xor         eax,eax
  004036B6: 40                 inc         eax
  004036B7: 5D                 pop         ebp
  004036B8: C3                 ret
  004036B9: 8B 45 08           mov         eax,dword ptr [ebp+8]
  004036BC: 5D                 pop         ebp
  004036BD: C3                 ret
  004036BE: FF 25 24 61 40 00  jmp         dword ptr ds:[00406124h]
  004036C4: CC                 int         3
  004036C5: CC                 int         3
  004036C6: CC                 int         3
  004036C7: CC                 int         3
  004036C8: CC                 int         3
  004036C9: CC                 int         3
  004036CA: CC                 int         3
  004036CB: CC                 int         3
  004036CC: CC                 int         3
  004036CD: CC                 int         3
  004036CE: CC                 int         3
  004036CF: CC                 int         3
  004036D0: 33 C0              xor         eax,eax
  004036D2: C3                 ret
  004036D3: CC                 int         3
  004036D4: CC                 int         3
  004036D5: CC                 int         3
  004036D6: CC                 int         3
  004036D7: CC                 int         3
  004036D8: CC                 int         3
  004036D9: CC                 int         3
  004036DA: CC                 int         3
  004036DB: CC                 int         3
  004036DC: CC                 int         3
  004036DD: CC                 int         3
  004036DE: CC                 int         3
  004036DF: CC                 int         3
  004036E0: 8B FF              mov         edi,edi
  004036E2: 55                 push        ebp
  004036E3: 8B EC              mov         ebp,esp
  004036E5: 8B 45 08           mov         eax,dword ptr [ebp+8]
  004036E8: 33 D2              xor         edx,edx
  004036EA: 53                 push        ebx
  004036EB: 56                 push        esi
  004036EC: 57                 push        edi
  004036ED: 8B 48 3C           mov         ecx,dword ptr [eax+3Ch]
  004036F0: 03 C8              add         ecx,eax
  004036F2: 0F B7 41 14        movzx       eax,word ptr [ecx+14h]
  004036F6: 0F B7 59 06        movzx       ebx,word ptr [ecx+6]
  004036FA: 83 C0 18           add         eax,18h
  004036FD: 03 C1              add         eax,ecx
  004036FF: 85 DB              test        ebx,ebx
  00403701: 74 1B              je          0040371E
  00403703: 8B 7D 0C           mov         edi,dword ptr [ebp+0Ch]
  00403706: 8B 70 0C           mov         esi,dword ptr [eax+0Ch]
  00403709: 3B FE              cmp         edi,esi
  0040370B: 72 09              jb          00403716
  0040370D: 8B 48 08           mov         ecx,dword ptr [eax+8]
  00403710: 03 CE              add         ecx,esi
  00403712: 3B F9              cmp         edi,ecx
  00403714: 72 0A              jb          00403720
  00403716: 42                 inc         edx
  00403717: 83 C0 28           add         eax,28h
  0040371A: 3B D3              cmp         edx,ebx
  0040371C: 72 E8              jb          00403706
  0040371E: 33 C0              xor         eax,eax
  00403720: 5F                 pop         edi
  00403721: 5E                 pop         esi
  00403722: 5B                 pop         ebx
  00403723: 5D                 pop         ebp
  00403724: C3                 ret
  00403725: CC                 int         3
  00403726: CC                 int         3
  00403727: CC                 int         3
  00403728: CC                 int         3
  00403729: CC                 int         3
  0040372A: CC                 int         3
  0040372B: CC                 int         3
  0040372C: CC                 int         3
  0040372D: CC                 int         3
  0040372E: CC                 int         3
  0040372F: CC                 int         3
  00403730: 8B FF              mov         edi,edi
  00403732: 55                 push        ebp
  00403733: 8B EC              mov         ebp,esp
  00403735: 6A FE              push        0FFFFFFFEh
  00403737: 68 E0 39 40 00     push        4039E0h
  0040373C: 68 40 39 40 00     push        403940h
  00403741: 64 A1 00 00 00 00  mov         eax,dword ptr fs:[00000000h]
  00403747: 50                 push        eax
  00403748: 83 EC 08           sub         esp,8
  0040374B: 53                 push        ebx
  0040374C: 56                 push        esi
  0040374D: 57                 push        edi
  0040374E: A1 04 40 40 00     mov         eax,dword ptr ds:[00404004h]
  00403753: 31 45 F8           xor         dword ptr [ebp-8],eax
  00403756: 33 C5              xor         eax,ebp
  00403758: 50                 push        eax
  00403759: 8D 45 F0           lea         eax,[ebp-10h]
  0040375C: 64 A3 00 00 00 00  mov         dword ptr fs:[00000000h],eax
  00403762: 89 65 E8           mov         dword ptr [ebp-18h],esp
  00403765: C7 45 FC 00 00 00  mov         dword ptr [ebp-4],0
            00
  0040376C: 68 00 00 40 00     push        400000h
  00403771: E8 7A 00 00 00     call        004037F0
  00403776: 83 C4 04           add         esp,4
  00403779: 85 C0              test        eax,eax
  0040377B: 74 54              je          004037D1
  0040377D: 8B 45 08           mov         eax,dword ptr [ebp+8]
  00403780: 2D 00 00 40 00     sub         eax,400000h
  00403785: 50                 push        eax
  00403786: 68 00 00 40 00     push        400000h
  0040378B: E8 50 FF FF FF     call        004036E0
  00403790: 83 C4 08           add         esp,8
  00403793: 85 C0              test        eax,eax
  00403795: 74 3A              je          004037D1
  00403797: 8B 40 24           mov         eax,dword ptr [eax+24h]
  0040379A: C1 E8 1F           shr         eax,1Fh
  0040379D: F7 D0              not         eax
  0040379F: 83 E0 01           and         eax,1
  004037A2: C7 45 FC FE FF FF  mov         dword ptr [ebp-4],0FFFFFFFEh
            FF
  004037A9: 8B 4D F0           mov         ecx,dword ptr [ebp-10h]
  004037AC: 64 89 0D 00 00 00  mov         dword ptr fs:[00000000h],ecx
            00
  004037B3: 59                 pop         ecx
  004037B4: 5F                 pop         edi
  004037B5: 5E                 pop         esi
  004037B6: 5B                 pop         ebx
  004037B7: 8B E5              mov         esp,ebp
  004037B9: 5D                 pop         ebp
  004037BA: C3                 ret
  004037BB: 8B 45 EC           mov         eax,dword ptr [ebp-14h]
  004037BE: 8B 00              mov         eax,dword ptr [eax]
  004037C0: 33 C9              xor         ecx,ecx
  004037C2: 81 38 05 00 00 C0  cmp         dword ptr [eax],0C0000005h
  004037C8: 0F 94 C1           sete        cl
  004037CB: 8B C1              mov         eax,ecx
  004037CD: C3                 ret
  004037CE: 8B 65 E8           mov         esp,dword ptr [ebp-18h]
  004037D1: C7 45 FC FE FF FF  mov         dword ptr [ebp-4],0FFFFFFFEh
            FF
  004037D8: 33 C0              xor         eax,eax
  004037DA: 8B 4D F0           mov         ecx,dword ptr [ebp-10h]
  004037DD: 64 89 0D 00 00 00  mov         dword ptr fs:[00000000h],ecx
            00
  004037E4: 59                 pop         ecx
  004037E5: 5F                 pop         edi
  004037E6: 5E                 pop         esi
  004037E7: 5B                 pop         ebx
  004037E8: 8B E5              mov         esp,ebp
  004037EA: 5D                 pop         ebp
  004037EB: C3                 ret
  004037EC: CC                 int         3
  004037ED: CC                 int         3
  004037EE: CC                 int         3
  004037EF: CC                 int         3
  004037F0: 8B FF              mov         edi,edi
  004037F2: 55                 push        ebp
  004037F3: 8B EC              mov         ebp,esp
  004037F5: 8B 4D 08           mov         ecx,dword ptr [ebp+8]
  004037F8: B8 4D 5A 00 00     mov         eax,5A4Dh
  004037FD: 66 39 01           cmp         word ptr [ecx],ax
  00403800: 75 1F              jne         00403821
  00403802: 8B 41 3C           mov         eax,dword ptr [ecx+3Ch]
  00403805: 03 C1              add         eax,ecx
  00403807: 81 38 50 45 00 00  cmp         dword ptr [eax],4550h
  0040380D: 75 12              jne         00403821
  0040380F: B9 0B 01 00 00     mov         ecx,10Bh
  00403814: 66 39 48 18        cmp         word ptr [eax+18h],cx
  00403818: 75 07              jne         00403821
  0040381A: B8 01 00 00 00     mov         eax,1
  0040381F: 5D                 pop         ebp
  00403820: C3                 ret
  00403821: 33 C0              xor         eax,eax
  00403823: 5D                 pop         ebp
  00403824: C3                 ret
  00403825: 8B FF              mov         edi,edi
  00403827: 55                 push        ebp
  00403828: 8B EC              mov         ebp,esp
  0040382A: 83 EC 14           sub         esp,14h
  0040382D: 83 65 F4 00        and         dword ptr [ebp-0Ch],0
  00403831: 83 65 F8 00        and         dword ptr [ebp-8],0
  00403835: A1 04 40 40 00     mov         eax,dword ptr ds:[00404004h]
  0040383A: 56                 push        esi
  0040383B: 57                 push        edi
  0040383C: BF 4E E6 40 BB     mov         edi,0BB40E64Eh
  00403841: BE 00 00 FF FF     mov         esi,0FFFF0000h
  00403846: 3B C7              cmp         eax,edi
  00403848: 74 04              je          0040384E
  0040384A: 85 C6              test        esi,eax
  0040384C: 75 64              jne         004038B2
  0040384E: 8D 45 F4           lea         eax,[ebp-0Ch]
  00403851: 50                 push        eax
  00403852: FF 15 D8 60 40 00  call        dword ptr ds:[004060D8h]
  00403858: 8B 45 F8           mov         eax,dword ptr [ebp-8]
  0040385B: 33 45 F4           xor         eax,dword ptr [ebp-0Ch]
  0040385E: 89 45 FC           mov         dword ptr [ebp-4],eax
  00403861: FF 15 98 60 40 00  call        dword ptr ds:[00406098h]
  00403867: 31 45 FC           xor         dword ptr [ebp-4],eax
  0040386A: FF 15 A0 60 40 00  call        dword ptr ds:[004060A0h]
  00403870: 31 45 FC           xor         dword ptr [ebp-4],eax
  00403873: FF 15 D4 60 40 00  call        dword ptr ds:[004060D4h]
  00403879: 33 45 FC           xor         eax,dword ptr [ebp-4]
  0040387C: 8D 4D FC           lea         ecx,[ebp-4]
  0040387F: 33 C1              xor         eax,ecx
  00403881: 89 45 FC           mov         dword ptr [ebp-4],eax
  00403884: 8D 45 EC           lea         eax,[ebp-14h]
  00403887: 50                 push        eax
  00403888: FF 15 AC 60 40 00  call        dword ptr ds:[004060ACh]
  0040388E: 8B 45 F0           mov         eax,dword ptr [ebp-10h]
  00403891: 33 45 EC           xor         eax,dword ptr [ebp-14h]
  00403894: 33 45 FC           xor         eax,dword ptr [ebp-4]
  00403897: 8B C8              mov         ecx,eax
  00403899: 3B C7              cmp         eax,edi
  0040389B: 74 08              je          004038A5
  0040389D: 85 35 04 40 40 00  test        dword ptr ds:[00404004h],esi
  004038A3: 75 07              jne         004038AC
  004038A5: B8 4F E6 40 BB     mov         eax,0BB40E64Fh
  004038AA: 8B C8              mov         ecx,eax
  004038AC: 89 0D 04 40 40 00  mov         dword ptr ds:[00404004h],ecx
  004038B2: F7 D0              not         eax
  004038B4: 5F                 pop         edi
  004038B5: A3 08 40 40 00     mov         dword ptr ds:[00404008h],eax
  004038BA: 5E                 pop         esi
  004038BB: C9                 leave
  004038BC: C3                 ret
  004038BD: 68 00 00 03 00     push        30000h
  004038C2: 68 00 00 01 00     push        10000h
  004038C7: FF 15 04 61 40 00  call        dword ptr ds:[00406104h]
  004038CD: 59                 pop         ecx
  004038CE: 59                 pop         ecx
  004038CF: C3                 ret
  004038D0: FF 25 48 61 40 00  jmp         dword ptr ds:[00406148h]
  004038D6: CC                 int         3
  004038D7: CC                 int         3
  004038D8: 68 40 39 40 00     push        403940h
  004038DD: 64 FF 35 00 00 00  push        dword ptr fs:[00000000h]
            00
  004038E4: 8B 44 24 10        mov         eax,dword ptr [esp+10h]
  004038E8: 89 6C 24 10        mov         dword ptr [esp+10h],ebp
  004038EC: 8D 6C 24 10        lea         ebp,[esp+10h]
  004038F0: 2B E0              sub         esp,eax
  004038F2: 53                 push        ebx
  004038F3: 56                 push        esi
  004038F4: 57                 push        edi
  004038F5: A1 04 40 40 00     mov         eax,dword ptr ds:[00404004h]
  004038FA: 31 45 FC           xor         dword ptr [ebp-4],eax
  004038FD: 33 C5              xor         eax,ebp
  004038FF: 50                 push        eax
  00403900: 89 65 E8           mov         dword ptr [ebp-18h],esp
  00403903: FF 75 F8           push        dword ptr [ebp-8]
  00403906: 8B 45 FC           mov         eax,dword ptr [ebp-4]
  00403909: C7 45 FC FE FF FF  mov         dword ptr [ebp-4],0FFFFFFFEh
            FF
  00403910: 89 45 F8           mov         dword ptr [ebp-8],eax
  00403913: 8D 45 F0           lea         eax,[ebp-10h]
  00403916: 64 A3 00 00 00 00  mov         dword ptr fs:[00000000h],eax
  0040391C: C3                 ret
  0040391D: 8B 4D F0           mov         ecx,dword ptr [ebp-10h]
  00403920: 64 89 0D 00 00 00  mov         dword ptr fs:[00000000h],ecx
            00
  00403927: 59                 pop         ecx
  00403928: 5F                 pop         edi
  00403929: 5F                 pop         edi
  0040392A: 5E                 pop         esi
  0040392B: 5B                 pop         ebx
  0040392C: 8B E5              mov         esp,ebp
  0040392E: 5D                 pop         ebp
  0040392F: 51                 push        ecx
  00403930: C3                 ret
  00403931: CC                 int         3
  00403932: CC                 int         3
  00403933: CC                 int         3
  00403934: CC                 int         3
  00403935: CC                 int         3
  00403936: CC                 int         3
  00403937: CC                 int         3
  00403938: CC                 int         3
  00403939: CC                 int         3
  0040393A: CC                 int         3
  0040393B: CC                 int         3
  0040393C: CC                 int         3
  0040393D: CC                 int         3
  0040393E: CC                 int         3
  0040393F: CC                 int         3
  00403940: 8B FF              mov         edi,edi
  00403942: 55                 push        ebp
  00403943: 8B EC              mov         ebp,esp
  00403945: FF 75 14           push        dword ptr [ebp+14h]
  00403948: FF 75 10           push        dword ptr [ebp+10h]
  0040394B: FF 75 0C           push        dword ptr [ebp+0Ch]
  0040394E: FF 75 08           push        dword ptr [ebp+8]
  00403951: 68 60 34 40 00     push        403460h
  00403956: 68 04 40 40 00     push        404004h
  0040395B: E8 13 00 00 00     call        00403973
  00403960: 83 C4 18           add         esp,18h
  00403963: 5D                 pop         ebp
  00403964: C3                 ret
  00403965: CC                 int         3
  00403966: CC                 int         3
  00403967: CC                 int         3
  00403968: CC                 int         3
  00403969: CC                 int         3
  0040396A: CC                 int         3
  0040396B: CC                 int         3
  0040396C: CC                 int         3
  0040396D: CC                 int         3
  0040396E: CC                 int         3
  0040396F: CC                 int         3
  00403970: C2 00 00           ret         0
  00403973: FF 25 F4 60 40 00  jmp         dword ptr ds:[004060F4h]
  00403979: 8B FF              mov         edi,edi
  0040397B: 55                 push        ebp
  0040397C: 8B EC              mov         ebp,esp
  0040397E: E8 0A 00 00 00     call        0040398D
  00403983: 8B 4D 08           mov         ecx,dword ptr [ebp+8]
  00403986: C1 E1 05           shl         ecx,5
  00403989: 03 C1              add         eax,ecx
  0040398B: 5D                 pop         ebp
  0040398C: C3                 ret
  0040398D: FF 25 FC 60 40 00  jmp         dword ptr ds:[004060FCh]
  00403993: FF 25 34 61 40 00  jmp         dword ptr ds:[00406134h]
  00403999: FF 25 4C 61 40 00  jmp         dword ptr ds:[0040614Ch]
  0040399F: CC                 int         3
  004039A0: FE
  004039A1: FF
  004039A2: FF
  004039A3: FF 00              inc         dword ptr [eax]
  004039A5: 00 00              add         byte ptr [eax],al
  004039A7: 00 D4              add         ah,dl
  004039A9: FF
  004039AA: FF
  004039AB: FF 00              inc         dword ptr [eax]
  004039AD: 00 00              add         byte ptr [eax],al
  004039AF: 00 FE              add         dh,bh
  004039B1: FF
  004039B2: FF
  004039B3: FF 52 33           call        dword ptr [edx+33h]
  004039B6: 40                 inc         eax
  004039B7: 00 66 33           add         byte ptr [esi+33h],ah
  004039BA: 40                 inc         eax
  004039BB: 00 00              add         byte ptr [eax],al
  004039BD: 00 00              add         byte ptr [eax],al
  004039BF: 00 FE              add         dh,bh
  004039C1: FF
  004039C2: FF
  004039C3: FF 00              inc         dword ptr [eax]
  004039C5: 00 00              add         byte ptr [eax],al
  004039C7: 00 D4              add         ah,dl
  004039C9: FF
  004039CA: FF
  004039CB: FF 00              inc         dword ptr [eax]
  004039CD: 00 00              add         byte ptr [eax],al
  004039CF: 00 FE              add         dh,bh
  004039D1: FF
  004039D2: FF
  004039D3: FF 61 36           jmp         dword ptr [ecx+36h]
  004039D6: 40                 inc         eax
  004039D7: 00 65 36           add         byte ptr [ebp+36h],ah
  004039DA: 40                 inc         eax
  004039DB: 00 00              add         byte ptr [eax],al
  004039DD: 00 00              add         byte ptr [eax],al
  004039DF: 00 FE              add         dh,bh
  004039E1: FF
  004039E2: FF
  004039E3: FF 00              inc         dword ptr [eax]
  004039E5: 00 00              add         byte ptr [eax],al
  004039E7: 00 D8              add         al,bl
  004039E9: FF
  004039EA: FF
  004039EB: FF 00              inc         dword ptr [eax]
  004039ED: 00 00              add         byte ptr [eax],al
  004039EF: 00 FE              add         dh,bh
  004039F1: FF
  004039F2: FF
  004039F3: FF
  004039F4: BB 37 40 00 CE     mov         ebx,0CE004037h
  004039F9: 37                 aaa
  004039FA: 40                 inc         eax
  004039FB: 00

  Summary

        2000 .data
        1000 .idata
        1000 .reloc
        1000 .rsrc
        3000 .text
